################################################################################
#                                                                              #
#      IAR Universal Linker V5.7.0.39                                          #
#                                                                              #
#           Link time     =  19/Jun/2014  08:56:26                             #
#           Target CPU    =  MSP430                                            #
#           List file     =  "C:\jenkins\workspace\MspExp430FR5969\mspexp430fr #
#                            5869\imports\MSP-EXP430FR5969 Software Examples\S #
#                            ource\430BOOST-SHARP96_ULP_FRAM\IAR\Debug\List\43 #
#                            0BOOST-SHARP96_ULP_FRAM.map"                      #
#           Output file 1 =  "C:\jenkins\workspace\MspExp430FR5969\mspexp430fr #
#                            5869\imports\MSP-EXP430FR5969 Software Examples\S #
#                            ource\430BOOST-SHARP96_ULP_FRAM\IAR\Debug\Exe\430 #
#                            BOOST-SHARP96_ULP_FRAM.txt"                       #
#                            Format: msp430_txt                                #
#           Output file 2 =  "C:\jenkins\workspace\MspExp430FR5969\mspexp430fr #
#                            5869\imports\MSP-EXP430FR5969 Software Examples\S #
#                            ource\430BOOST-SHARP96_ULP_FRAM\IAR\Debug\Exe\430 #
#                            BOOST-SHARP96_ULP_FRAM.d43"                       #
#                            Format: debug                                     #
#                            UBROF version 10.0.6                              #
#                            Using library modules for C-SPY (-rt)             #
#           Command line  =  "C:\jenkins\workspace\MspExp430FR5969\mspexp430fr #
#                            5869\imports\MSP-EXP430FR5969 Software Examples\S #
#                            ource\430BOOST-SHARP96_ULP_FRAM\IAR\Debug\Obj\Act #
#                            ivePowerMeasure.r43"                              #
#                            "C:\jenkins\workspace\MspExp430FR5969\mspexp430fr #
#                            5869\imports\MSP-EXP430FR5969 Software Examples\S #
#                            ource\430BOOST-SHARP96_ULP_FRAM\IAR\Debug\Obj\adc #
#                            12_b.r43"                                         #
#                            "C:\jenkins\workspace\MspExp430FR5969\mspexp430fr #
#                            5869\imports\MSP-EXP430FR5969 Software Examples\S #
#                            ource\430BOOST-SHARP96_ULP_FRAM\IAR\Debug\Obj\aes #
#                            256.r43"                                          #
#                            "C:\jenkins\workspace\MspExp430FR5969\mspexp430fr #
#                            5869\imports\MSP-EXP430FR5969 Software Examples\S #
#                            ource\430BOOST-SHARP96_ULP_FRAM\IAR\Debug\Obj\cir #
#                            cle.r43"                                          #
#                            "C:\jenkins\workspace\MspExp430FR5969\mspexp430fr #
#                            5869\imports\MSP-EXP430FR5969 Software Examples\S #
#                            ource\430BOOST-SHARP96_ULP_FRAM\IAR\Debug\Obj\Clo #
#                            ckApp.r43"                                        #
#                            "C:\jenkins\workspace\MspExp430FR5969\mspexp430fr #
#                            5869\imports\MSP-EXP430FR5969 Software Examples\S #
#                            ource\430BOOST-SHARP96_ULP_FRAM\IAR\Debug\Obj\com #
#                            p_e.r43"                                          #
#                            "C:\jenkins\workspace\MspExp430FR5969\mspexp430fr #
#                            5869\imports\MSP-EXP430FR5969 Software Examples\S #
#                            ource\430BOOST-SHARP96_ULP_FRAM\IAR\Debug\Obj\con #
#                            text.r43"                                         #
#                            "C:\jenkins\workspace\MspExp430FR5969\mspexp430fr #
#                            5869\imports\MSP-EXP430FR5969 Software Examples\S #
#                            ource\430BOOST-SHARP96_ULP_FRAM\IAR\Debug\Obj\crc #
#                            .r43"                                             #
#                            "C:\jenkins\workspace\MspExp430FR5969\mspexp430fr #
#                            5869\imports\MSP-EXP430FR5969 Software Examples\S #
#                            ource\430BOOST-SHARP96_ULP_FRAM\IAR\Debug\Obj\cs. #
#                            r43"                                              #
#                            "C:\jenkins\workspace\MspExp430FR5969\mspexp430fr #
#                            5869\imports\MSP-EXP430FR5969 Software Examples\S #
#                            ource\430BOOST-SHARP96_ULP_FRAM\IAR\Debug\Obj\CTS #
#                            _HAL.r43"                                         #
#                            "C:\jenkins\workspace\MspExp430FR5969\mspexp430fr #
#                            5869\imports\MSP-EXP430FR5969 Software Examples\S #
#                            ource\430BOOST-SHARP96_ULP_FRAM\IAR\Debug\Obj\CTS #
#                            _Layer.r43"                                       #
#                            "C:\jenkins\workspace\MspExp430FR5969\mspexp430fr #
#                            5869\imports\MSP-EXP430FR5969 Software Examples\S #
#                            ource\430BOOST-SHARP96_ULP_FRAM\IAR\Debug\Obj\CTS #
#                            _wolverine.r43"                                   #
#                            "C:\jenkins\workspace\MspExp430FR5969\mspexp430fr #
#                            5869\imports\MSP-EXP430FR5969 Software Examples\S #
#                            ource\430BOOST-SHARP96_ULP_FRAM\IAR\Debug\Obj\dma #
#                            .r43"                                             #
#                            "C:\jenkins\workspace\MspExp430FR5969\mspexp430fr #
#                            5869\imports\MSP-EXP430FR5969 Software Examples\S #
#                            ource\430BOOST-SHARP96_ULP_FRAM\IAR\Debug\Obj\eus #
#                            ci_a_spi.r43"                                     #
#                            "C:\jenkins\workspace\MspExp430FR5969\mspexp430fr #
#                            5869\imports\MSP-EXP430FR5969 Software Examples\S #
#                            ource\430BOOST-SHARP96_ULP_FRAM\IAR\Debug\Obj\eus #
#                            ci_a_uart.r43"                                    #
#                            "C:\jenkins\workspace\MspExp430FR5969\mspexp430fr #
#                            5869\imports\MSP-EXP430FR5969 Software Examples\S #
#                            ource\430BOOST-SHARP96_ULP_FRAM\IAR\Debug\Obj\eus #
#                            ci_b_i2c.r43"                                     #
#                            "C:\jenkins\workspace\MspExp430FR5969\mspexp430fr #
#                            5869\imports\MSP-EXP430FR5969 Software Examples\S #
#                            ource\430BOOST-SHARP96_ULP_FRAM\IAR\Debug\Obj\eus #
#                            ci_b_spi.r43"                                     #
#                            "C:\jenkins\workspace\MspExp430FR5969\mspexp430fr #
#                            5869\imports\MSP-EXP430FR5969 Software Examples\S #
#                            ource\430BOOST-SHARP96_ULP_FRAM\IAR\Debug\Obj\fon #
#                            tcmss12.r43"                                      #
#                            "C:\jenkins\workspace\MspExp430FR5969\mspexp430fr #
#                            5869\imports\MSP-EXP430FR5969 Software Examples\S #
#                            ource\430BOOST-SHARP96_ULP_FRAM\IAR\Debug\Obj\fon #
#                            tcmss32.r43"                                      #
#                            "C:\jenkins\workspace\MspExp430FR5969\mspexp430fr #
#                            5869\imports\MSP-EXP430FR5969 Software Examples\S #
#                            ource\430BOOST-SHARP96_ULP_FRAM\IAR\Debug\Obj\FR5 #
#                            9xx_EXP.r43"                                      #
#                            "C:\jenkins\workspace\MspExp430FR5969\mspexp430fr #
#                            5869\imports\MSP-EXP430FR5969 Software Examples\S #
#                            ource\430BOOST-SHARP96_ULP_FRAM\IAR\Debug\Obj\fra #
#                            m.r43"                                            #
#                            "C:\jenkins\workspace\MspExp430FR5969\mspexp430fr #
#                            5869\imports\MSP-EXP430FR5969 Software Examples\S #
#                            ource\430BOOST-SHARP96_ULP_FRAM\IAR\Debug\Obj\FRA #
#                            MSpeedApp.r43"                                    #
#                            "C:\jenkins\workspace\MspExp430FR5969\mspexp430fr #
#                            5869\imports\MSP-EXP430FR5969 Software Examples\S #
#                            ource\430BOOST-SHARP96_ULP_FRAM\IAR\Debug\Obj\Gam #
#                            e.r43"                                            #
#                            "C:\jenkins\workspace\MspExp430FR5969\mspexp430fr #
#                            5869\imports\MSP-EXP430FR5969 Software Examples\S #
#                            ource\430BOOST-SHARP96_ULP_FRAM\IAR\Debug\Obj\gpi #
#                            o.r43"                                            #
#                            "C:\jenkins\workspace\MspExp430FR5969\mspexp430fr #
#                            5869\imports\MSP-EXP430FR5969 Software Examples\S #
#                            ource\430BOOST-SHARP96_ULP_FRAM\IAR\Debug\Obj\ima #
#                            ge.r43"                                           #
#                            "C:\jenkins\workspace\MspExp430FR5969\mspexp430fr #
#                            5869\imports\MSP-EXP430FR5969 Software Examples\S #
#                            ource\430BOOST-SHARP96_ULP_FRAM\IAR\Debug\Obj\lin #
#                            e.r43"                                            #
#                            "C:\jenkins\workspace\MspExp430FR5969\mspexp430fr #
#                            5869\imports\MSP-EXP430FR5969 Software Examples\S #
#                            ource\430BOOST-SHARP96_ULP_FRAM\IAR\Debug\Obj\low #
#                            _level_init.r43"                                  #
#                            "C:\jenkins\workspace\MspExp430FR5969\mspexp430fr #
#                            5869\imports\MSP-EXP430FR5969 Software Examples\S #
#                            ource\430BOOST-SHARP96_ULP_FRAM\IAR\Debug\Obj\mpu #
#                            .r43"                                             #
#                            "C:\jenkins\workspace\MspExp430FR5969\mspexp430fr #
#                            5869\imports\MSP-EXP430FR5969 Software Examples\S #
#                            ource\430BOOST-SHARP96_ULP_FRAM\IAR\Debug\Obj\mpy #
#                            32.r43"                                           #
#                            "C:\jenkins\workspace\MspExp430FR5969\mspexp430fr #
#                            5869\imports\MSP-EXP430FR5969 Software Examples\S #
#                            ource\430BOOST-SHARP96_ULP_FRAM\IAR\Debug\Obj\msp #
#                            430fr59xx_CHR.r43"                                #
#                            "C:\jenkins\workspace\MspExp430FR5969\mspexp430fr #
#                            5869\imports\MSP-EXP430FR5969 Software Examples\S #
#                            ource\430BOOST-SHARP96_ULP_FRAM\IAR\Debug\Obj\myT #
#                            imer.r43"                                         #
#                            "C:\jenkins\workspace\MspExp430FR5969\mspexp430fr #
#                            5869\imports\MSP-EXP430FR5969 Software Examples\S #
#                            ource\430BOOST-SHARP96_ULP_FRAM\IAR\Debug\Obj\pmm #
#                            .r43"                                             #
#                            "C:\jenkins\workspace\MspExp430FR5969\mspexp430fr #
#                            5869\imports\MSP-EXP430FR5969 Software Examples\S #
#                            ource\430BOOST-SHARP96_ULP_FRAM\IAR\Debug\Obj\rec #
#                            tangle.r43"                                       #
#                            "C:\jenkins\workspace\MspExp430FR5969\mspexp430fr #
#                            5869\imports\MSP-EXP430FR5969 Software Examples\S #
#                            ource\430BOOST-SHARP96_ULP_FRAM\IAR\Debug\Obj\ref #
#                            _a.r43"                                           #
#                            "C:\jenkins\workspace\MspExp430FR5969\mspexp430fr #
#                            5869\imports\MSP-EXP430FR5969 Software Examples\S #
#                            ource\430BOOST-SHARP96_ULP_FRAM\IAR\Debug\Obj\rtc #
#                            _b.r43"                                           #
#                            "C:\jenkins\workspace\MspExp430FR5969\mspexp430fr #
#                            5869\imports\MSP-EXP430FR5969 Software Examples\S #
#                            ource\430BOOST-SHARP96_ULP_FRAM\IAR\Debug\Obj\sfr #
#                            .r43"                                             #
#                            "C:\jenkins\workspace\MspExp430FR5969\mspexp430fr #
#                            5869\imports\MSP-EXP430FR5969 Software Examples\S #
#                            ource\430BOOST-SHARP96_ULP_FRAM\IAR\Debug\Obj\sha #
#                            rp96x96.r43"                                      #
#                            "C:\jenkins\workspace\MspExp430FR5969\mspexp430fr #
#                            5869\imports\MSP-EXP430FR5969 Software Examples\S #
#                            ource\430BOOST-SHARP96_ULP_FRAM\IAR\Debug\Obj\Sha #
#                            rp96x96utils.r43"                                 #
#                            "C:\jenkins\workspace\MspExp430FR5969\mspexp430fr #
#                            5869\imports\MSP-EXP430FR5969 Software Examples\S #
#                            ource\430BOOST-SHARP96_ULP_FRAM\IAR\Debug\Obj\str #
#                            ing.r43"                                          #
#                            "C:\jenkins\workspace\MspExp430FR5969\mspexp430fr #
#                            5869\imports\MSP-EXP430FR5969 Software Examples\S #
#                            ource\430BOOST-SHARP96_ULP_FRAM\IAR\Debug\Obj\str #
#                            ucture.r43"                                       #
#                            "C:\jenkins\workspace\MspExp430FR5969\mspexp430fr #
#                            5869\imports\MSP-EXP430FR5969 Software Examples\S #
#                            ource\430BOOST-SHARP96_ULP_FRAM\IAR\Debug\Obj\sys #
#                            .r43"                                             #
#                            "C:\jenkins\workspace\MspExp430FR5969\mspexp430fr #
#                            5869\imports\MSP-EXP430FR5969 Software Examples\S #
#                            ource\430BOOST-SHARP96_ULP_FRAM\IAR\Debug\Obj\tim #
#                            er_a.r43"                                         #
#                            "C:\jenkins\workspace\MspExp430FR5969\mspexp430fr #
#                            5869\imports\MSP-EXP430FR5969 Software Examples\S #
#                            ource\430BOOST-SHARP96_ULP_FRAM\IAR\Debug\Obj\tim #
#                            er_b.r43"                                         #
#                            "C:\jenkins\workspace\MspExp430FR5969\mspexp430fr #
#                            5869\imports\MSP-EXP430FR5969 Software Examples\S #
#                            ource\430BOOST-SHARP96_ULP_FRAM\IAR\Debug\Obj\tlv #
#                            .r43"                                             #
#                            "C:\jenkins\workspace\MspExp430FR5969\mspexp430fr #
#                            5869\imports\MSP-EXP430FR5969 Software Examples\S #
#                            ource\430BOOST-SHARP96_ULP_FRAM\IAR\Debug\Obj\ULP #
#                            Meter.r43"                                        #
#                            "C:\jenkins\workspace\MspExp430FR5969\mspexp430fr #
#                            5869\imports\MSP-EXP430FR5969 Software Examples\S #
#                            ource\430BOOST-SHARP96_ULP_FRAM\IAR\Debug\Obj\Upd #
#                            ateDisplay.r43"                                   #
#                            "C:\jenkins\workspace\MspExp430FR5969\mspexp430fr #
#                            5869\imports\MSP-EXP430FR5969 Software Examples\S #
#                            ource\430BOOST-SHARP96_ULP_FRAM\IAR\Debug\Obj\wdt #
#                            _a.r43"                                           #
#                            -o                                                #
#                            "C:\jenkins\workspace\MspExp430FR5969\mspexp430fr #
#                            5869\imports\MSP-EXP430FR5969 Software Examples\S #
#                            ource\430BOOST-SHARP96_ULP_FRAM\IAR\Debug\Exe\430 #
#                            BOOST-SHARP96_ULP_FRAM.d43"                       #
#                            -l                                                #
#                            "C:\jenkins\workspace\MspExp430FR5969\mspexp430fr #
#                            5869\imports\MSP-EXP430FR5969 Software Examples\S #
#                            ource\430BOOST-SHARP96_ULP_FRAM\IAR\Debug\List\43 #
#                            0BOOST-SHARP96_ULP_FRAM.map"                      #
#                            -xms -IC:\iar\EW430V5.60\430\LIB\ -f              #
#                            "C:\jenkins\workspace\MspExp430FR5969\mspexp430fr #
#                            5869\imports\MSP-EXP430FR5969 Software Examples\S #
#                            ource\430BOOST-SHARP96_ULP_FRAM\IAR\lnk430fr5969. #
#                            xcl"                                              #
#                            (-cmsp430 -QCODE_I=CODE_ID                        #
#                            -Z(DATA)DATA16_I,DATA16_Z,DATA16_N,TLS16_I,DATA16 #
#                            _HEAP+_DATA16_HEAP_SIZE=1C00-23FF                 #
#                            -Z(DATA)CODE_I -Z(DATA)CSTACK+_STACK_SIZE#        #
#                            -Z(DATA)DATA20_I,DATA20_Z,DATA20_N,DATA20_HEAP+_D #
#                            ATA20_HEAP_SIZE                                   #
#                            -Z(CODE)CSTART,ISR_CODE=4400-FF8F                 #
#                            -Z(CONST)DATA16_C,DATA16_ID,DATA16_P,TLS16_ID,DIF #
#                            UNCT,CHECKSUM=4400-FF8F                           #
#                            -P(CODE)CODE=4400-FF8F,10000-13FFF                #
#                            -Z(CODE)CODE_ID                                   #
#                            -Z(CONST)DATA20_C,DATA20_ID,DATA20_P=4400-FF8F,10 #
#                            000-13FFF                                         #
#                            -Z(CODE)INTVEC=FF90-FFFF                          #
#                            -Z(CODE)RESET=FFFE-FFFF) -f                       #
#                            C:\iar\EW430V5.60\430\config\multiplier32_loc2.xc #
#                            l                                                 #
#                            (-e?Mul8HwLoc2=?Mul8 -e?Mul16HwLoc2=?Mul16        #
#                            -e?Mul16to32uHwLoc2=?Mul16to32u                   #
#                            -e?Mul16to32sHwLoc2=?Mul16to32s                   #
#                            -e?Mul32Hw32Loc2=?Mul32                           #
#                            -e?Mul64Hw32Loc2=_Mul64i                          #
#                            -e?Mul32u32uto64iHw32Loc2=_Mul32u32uto64i         #
#                            -e?Mul32fHwLoc2=_Mul32f                           #
#                            -e_Mul64fHwPtrLoc2=_Mul64fPtr) -D_STACK_SIZE=A0   #
#                            -rt                                               #
#                            C:\iar\EW430V5.60\430\LIB\DLIB\dl430xsfn.r43      #
#                            -D_DATA16_HEAP_SIZE=A0                            #
#                            "-Omsp430_txt=C:\jenkins\workspace\MspExp430FR596 #
#                            9\mspexp430fr5869\imports\MSP-EXP430FR5969 Softwa #
#                            re Examples\Source\430BOOST-SHARP96_ULP_FRAM\IAR\ #
#                            Debug\Exe\430BOOST-SHARP96_ULP_FRAM.txt"          #
#                            -s __program_start -D_DATA20_HEAP_SIZE=50         #
#                                                                              #
#                           Copyright (C) 1987-2013 IAR Systems AB.            #
################################################################################





                ****************************************
                *                                      *
                *           CROSS REFERENCE            *
                *                                      *
                ****************************************

       Program entry at :           4400  Relocatable, from module : ?cstart




                ****************************************
                *                                      *
                *            RUNTIME MODEL             *
                *                                      *
                ****************************************

  __Heap_Handler             = Basic
  __SystemLibrary            = DLib
  __core                     = 430X
  __data_model               = small
  __dlib_file_descriptor     = 0
  __dlib_full_locale_support = 0
  __double_size              = 32
  __pic                      = no
  __reg_r4                   = free
  __reg_r5                   = free
  __rt_version               = 3

                ****************************************
                *                                      *
                *    AUTOMATIC SYMBOL REDIRECTIONS     *
                *                                      *
                ****************************************

                  There are no automatic symbol redirections.



                ****************************************
                *                                      *
                *              MODULE MAP              *
                *                                      *
                ****************************************


  DEFINED ABSOLUTE ENTRIES
    *************************************************************************

  DEFINED ABSOLUTE ENTRIES
  PROGRAM MODULE, NAME : ?ABS_ENTRY_MOD

Absolute parts
           ENTRY                   ADDRESS         REF BY
           =====                   =======         ======
           _DATA20_HEAP_SIZE       0050 
           _DATA16_HEAP_SIZE       00A0 
           _STACK_SIZE             00A0 
    *************************************************************************

  FILE NAME : C:\jenkins\workspace\MspExp430FR5969\mspexp430fr5869\imports\MSP-EXP430FR5969 Software Examples\Source\430BOOST-SHARP96_ULP_FRAM\IAR\Debug\Obj\ActivePowerMeasure.r43
  PROGRAM MODULE, NAME : ActivePowerMeasure

  SEGMENTS IN THE MODULE
  ======================
DATA16_Z
  Relative segment, address: 1C6C - 1C6C (0x1 bytes), align: 0
  Segment part 2.             Intra module refs:   ActivePowerApp
           ENTRY                   ADDRESS         REF BY
           =====                   =======         ======
           frequencyChoice         1C6C 
    -------------------------------------------------------------------------
DATA16_Z
  Relative segment, address: 1C6D - 1C6D (0x1 bytes), align: 0
  Segment part 3.             Intra module refs:   ActivePowerApp
           ENTRY                   ADDRESS         REF BY
           =====                   =======         ======
           cacheRatioChoice        1C6D 
    -------------------------------------------------------------------------
<CODE> 1 (was CODE)
  Relative segment, address: CCC4 - CD73 (0xb0 bytes), align: 1
  Segment part 10.
           ENTRY                   ADDRESS         REF BY
           =====                   =======         ======
           ActivePowerApp          CCC4            main (FR59xx_EXP)
               calls direct
               CSTACK = 00000000 ( 00000004 )
    -------------------------------------------------------------------------
<CODE> 1 (was CODE)
  Relative segment, address: DE0C - DE53 (0x48 bytes), align: 1
  Segment part 9.             Intra module refs:   ActivePowerApp
           ENTRY                   ADDRESS         REF BY
           =====                   =======         ======
           chooseFrequency         DE0C 
               calls direct
               CSTACK = 00000000 ( 00000006 )
    -------------------------------------------------------------------------
<CODE> 1 (was CODE)
  Relative segment, address: DE54 - DE97 (0x44 bytes), align: 1
  Segment part 8.             Intra module refs:   ActivePowerApp
           ENTRY                   ADDRESS         REF BY
           =====                   =======         ======
           chooseCacheRatio        DE54 
               calls direct
               CSTACK = 00000000 ( 00000006 )
    -------------------------------------------------------------------------
<CODE> 1 (was CODE)
  Relative segment, address: E58C - E5A1 (0x16 bytes), align: 1
  Segment part 7.             Intra module refs:   ActivePowerApp
           ENTRY                   ADDRESS         REF BY
           =====                   =======         ======
           Active_intro            E58C 
               calls direct
               CSTACK = 00000000 ( 00000004 )
    -------------------------------------------------------------------------
<CODE> 1 (was CODE)
  Relative segment, address: E720 - E729 (0xa bytes), align: 1
  Segment part 6.             Intra module refs:   ActivePowerApp
           ENTRY                   ADDRESS         REF BY
           =====                   =======         ======
           eUSCI_turnOn            E720 
               calls direct
               CSTACK = 00000000 ( 00000004 )
    -------------------------------------------------------------------------
<CODE> 1 (was CODE)
  Relative segment, address: E70C - E715 (0xa bytes), align: 1
  Segment part 5.             Intra module refs:   ActivePowerApp
           ENTRY                   ADDRESS         REF BY
           =====                   =======         ======
           eUSCI_turnOff           E70C 
               calls direct
               CSTACK = 00000000 ( 00000004 )
    -------------------------------------------------------------------------
<CODE> 1 (was CODE)
  Relative segment, address: D28A - D317 (0x8e bytes), align: 1
  Segment part 4.             Intra module refs:   ActivePowerApp
           ENTRY                   ADDRESS         REF BY
           =====                   =======         ======
           Active_setClock         D28A 
               calls direct
               CSTACK = 00000000 ( 0000000A )

    *************************************************************************

  FILE NAME : C:\jenkins\workspace\MspExp430FR5969\mspexp430fr5869\imports\MSP-EXP430FR5969 Software Examples\Source\430BOOST-SHARP96_ULP_FRAM\IAR\Debug\Obj\adc12_b.r43
  PROGRAM MODULE, NAME : adc12_b

  SEGMENTS IN THE MODULE
  ======================
<CODE> 1 (was CODE)
  Relative segment, address: CB58 - CC0D (0xb6 bytes), align: 1
  Segment part 21.
           ENTRY                   ADDRESS         REF BY
           =====                   =======         ======
           ADC12_B_init            CB58            ULP_takeADCReading (ULPMeter)
               CSTACK = 00000000 ( 00000014 )
    -------------------------------------------------------------------------
<CODE> 1 (was CODE)
  Relative segment, address: E67C - E689 (0xe bytes), align: 1
  Segment part 20.
           ENTRY                   ADDRESS         REF BY
           =====                   =======         ======
           ADC12_B_enable          E67C            ULP_takeADCReading (ULPMeter)
               CSTACK = 00000000 ( 00000004 )
    -------------------------------------------------------------------------
<CODE> 1 (was CODE)
  Relative segment, address: E698 - E6A5 (0xe bytes), align: 1
  Segment part 19.
           ENTRY                   ADDRESS         REF BY
           =====                   =======         ======
           ADC12_B_disable         E698            ULP_stopADCReading (ULPMeter)
               CSTACK = 00000000 ( 00000004 )
    -------------------------------------------------------------------------
<CODE> 1 (was CODE)
  Relative segment, address: E3EE - E40F (0x22 bytes), align: 1
  Segment part 18.
           ENTRY                   ADDRESS         REF BY
           =====                   =======         ======
           ADC12_B_setupSamplingTimer
                                   E3EE            ULP_takeADCReading (ULPMeter)
               CSTACK = 00000000 ( 00000006 )
    -------------------------------------------------------------------------
<CODE> 1 (was CODE)
  Relative segment, address: DE98 - DEDB (0x44 bytes), align: 1
  Segment part 16.
           ENTRY                   ADDRESS         REF BY
           =====                   =======         ======
           ADC12_B_memoryConfigure
                                   DE98            ULP_takeADCReading (ULPMeter)
               CSTACK = 00000000 ( 00000006 )
    -------------------------------------------------------------------------
<CODE> 1 (was CODE)
  Relative segment, address: E3CA - E3ED (0x24 bytes), align: 1
  Segment part 14.
           ENTRY                   ADDRESS         REF BY
           =====                   =======         ======
           ADC12_B_enableInterrupt
                                   E3CA            ULP_takeADCReading (ULPMeter)
               CSTACK = 00000000 ( 00000006 )
    -------------------------------------------------------------------------
<CODE> 1 (was CODE)
  Relative segment, address: E5FC - E60B (0x10 bytes), align: 1
  Segment part 12.
           ENTRY                   ADDRESS         REF BY
           =====                   =======         ======
           ADC12_B_clearInterrupt
                                   E5FC            ULP_takeADCReading (ULPMeter)
               CSTACK = 00000000 ( 00000004 )
    -------------------------------------------------------------------------
<CODE> 1 (was CODE)
  Relative segment, address: DF9A - DFD5 (0x3c bytes), align: 1
  Segment part 10.
           ENTRY                   ADDRESS         REF BY
           =====                   =======         ======
           ADC12_B_startConversion
                                   DF9A            ULP_takeADCReading (ULPMeter)
               CSTACK = 00000000 ( 00000006 )
    -------------------------------------------------------------------------
<CODE> 1 (was CODE)
  Relative segment, address: E150 - E17F (0x30 bytes), align: 1
  Segment part 9.
           ENTRY                   ADDRESS         REF BY
           =====                   =======         ======
           ADC12_B_disableConversions
                                   E150            ULP_stopADCReading (ULPMeter)
               calls direct
               CSTACK = 00000000 ( 00000008 )
    -------------------------------------------------------------------------
<CODE> 1 (was CODE)
  Relative segment, address: E77A - E781 (0x8 bytes), align: 1
  Segment part 2.             Intra module refs:   ADC12_B_disableConversions
           ENTRY                   ADDRESS         REF BY
           =====                   =======         ======
           ADC12_B_isBusy          E77A 
               CSTACK = 00000000 ( 00000004 )

    *************************************************************************

  FILE NAME : C:\jenkins\workspace\MspExp430FR5969\mspexp430fr5869\imports\MSP-EXP430FR5969 Software Examples\Source\430BOOST-SHARP96_ULP_FRAM\IAR\Debug\Obj\aes256.r43
    *************************************************************************

  FILE NAME : C:\jenkins\workspace\MspExp430FR5969\mspexp430fr5869\imports\MSP-EXP430FR5969 Software Examples\Source\430BOOST-SHARP96_ULP_FRAM\IAR\Debug\Obj\circle.r43
  PROGRAM MODULE, NAME : circle

  SEGMENTS IN THE MODULE
  ======================
<CODE> 1 (was CODE)
  Relative segment, address: 79B2 - 80F5 (0x744 bytes), align: 1
  Segment part 3.
           ENTRY                   ADDRESS         REF BY
           =====                   =======         ======
           GrCircleDraw            79B2            LCD_drawSliderBall (UpdateDisplay)
               calls indirect
               CSTACK = 00000000 ( 00000020 )

    *************************************************************************

  FILE NAME : C:\jenkins\workspace\MspExp430FR5969\mspexp430fr5869\imports\MSP-EXP430FR5969 Software Examples\Source\430BOOST-SHARP96_ULP_FRAM\IAR\Debug\Obj\ClockApp.r43
  PROGRAM MODULE, NAME : ClockApp

  SEGMENTS IN THE MODULE
  ======================
DATA16_AN
  Relative segment, address: 04B0 - 04B1 (0x2 bytes), align: 0
  Segment part 1. ROOT.       Intra module refs:   Clock_App
                                                   LCD_drawBattery (UpdateDisplay)
                                                   LCD_updateClock (UpdateDisplay)
                                                   PORT1_ISR (FR59xx_EXP)
                                                   RTC_ISR (FR59xx_EXP)
           ENTRY                   ADDRESS         REF BY
           =====                   =======         ======
           _A_RTCTIM0_L            04B0 
           LOCAL                   ADDRESS         
           =====                   =======         
           RTCTIM0                 04B0 
           RTCTIM0_H               04B1 
           RTCTIM0_L               04B0 
    -------------------------------------------------------------------------
DATA16_AN
  Relative segment, address: 04B2 - 04B3 (0x2 bytes), align: 0
  Segment part 2. ROOT.       Intra module refs:   Clock_App
                                                   LCD_drawBattery (UpdateDisplay)
                                                   LCD_updateClock (UpdateDisplay)
           ENTRY                   ADDRESS         REF BY
           =====                   =======         ======
           _A_RTCTIM1_L            04B2 
           LOCAL                   ADDRESS         
           =====                   =======         
           RTCTIM1                 04B2 
           RTCTIM1_H               04B3 
           RTCTIM1_L               04B2 
    -------------------------------------------------------------------------
DATA16_AN
  Relative segment, address: 04B4 - 04B5 (0x2 bytes), align: 0
  Segment part 3. ROOT.       Intra module refs:   Clock_App
                                                   LCD_drawBattery (UpdateDisplay)
                                                   LCD_updateClock (UpdateDisplay)
           ENTRY                   ADDRESS         REF BY
           =====                   =======         ======
           _A_RTCDATE_L            04B4 
           LOCAL                   ADDRESS         
           =====                   =======         
           RTCDATE                 04B4 
           RTCDATE_H               04B5 
           RTCDATE_L               04B4 
    -------------------------------------------------------------------------
DATA16_AN
  Relative segment, address: 04B6 - 04B7 (0x2 bytes), align: 0
  Segment part 4. ROOT.       Intra module refs:   Clock_App
                                                   LCD_updateClock (UpdateDisplay)
           ENTRY                   ADDRESS         REF BY
           =====                   =======         ======
           _A_RTCYEAR_L            04B6 
           LOCAL                   ADDRESS         
           =====                   =======         
           RTCYEAR                 04B6 
           RTCYEAR_H               04B7 
           RTCYEAR_L               04B6 
    -------------------------------------------------------------------------
DATA16_I
  Relative segment, address: 1C06 - 1C06 (0x1 bytes), align: 0
  Segment part 6.             Intra module refs:   Clock_App_init
           ENTRY                   ADDRESS         REF BY
           =====                   =======         ======
           setClock                1C06            main (FR59xx_EXP)
    -------------------------------------------------------------------------
DATA16_I
  Relative segment, address: 1C07 - 1C07 (0x1 bytes), align: 0
  Segment part 8.             Intra module refs:   Clock_App
           ENTRY                   ADDRESS         REF BY
           =====                   =======         ======
           freshFlag               1C07            PORT1_ISR (FR59xx_EXP)
                                                   RTC_ISR (FR59xx_EXP)
    -------------------------------------------------------------------------
DATA16_Z
  Relative segment, address: 1C6E - 1C6E (0x1 bytes), align: 0
  Segment part 10.            Intra module refs:   Clock_App
                                                   Clock_setParameter
                                                   Clock_setYear
           ENTRY                   ADDRESS         REF BY
           =====                   =======         ======
           ULP                     1C6E            PORT1_ISR (FR59xx_EXP)
    -------------------------------------------------------------------------
DATA16_I
  Relative segment, address: 1C08 - 1C08 (0x1 bytes), align: 0
  Segment part 11.            Intra module refs:   Clock_App
                                                   Clock_setParameter
                                                   Clock_setYear
           ENTRY                   ADDRESS         REF BY
           =====                   =======         ======
           firstEnter              1C08            PORT1_ISR (FR59xx_EXP)
    -------------------------------------------------------------------------
<CODE> 1 (was CODE)
  Relative segment, address: BE66 - BF53 (0xee bytes), align: 1
  Segment part 17.
           ENTRY                   ADDRESS         REF BY
           =====                   =======         ======
           Clock_App               BE66            main (FR59xx_EXP)
               calls direct
               CSTACK = 00000000 ( 00000004 )
    -------------------------------------------------------------------------
<CODE> 1 (was CODE)
  Relative segment, address: D318 - D39B (0x84 bytes), align: 1
  Segment part 16.            Intra module refs:   Clock_App
           LOCAL                   ADDRESS         
           =====                   =======         
           Clock_App_init          D318 
               calls direct
               CSTACK = 00000000 ( 00000014 )
    -------------------------------------------------------------------------
<CODE> 1 (was CODE)
  Relative segment, address: DA2C - DA95 (0x6a bytes), align: 1
  Segment part 15.            Intra module refs:   Clock_App
           LOCAL                   ADDRESS         
           =====                   =======         
           Clock_setParameter      DA2C 
               calls direct
               CSTACK = 00000000 ( 00000010 )
    -------------------------------------------------------------------------
<CODE> 1 (was CODE)
  Relative segment, address: D77C - D7F5 (0x7a bytes), align: 1
  Segment part 14.            Intra module refs:   Clock_App
           LOCAL                   ADDRESS         
           =====                   =======         
           Clock_setYear           D77C 
               calls direct
               CSTACK = 00000000 ( 0000000C )
    -------------------------------------------------------------------------
<CODE> 1 (was CODE)
  Relative segment, address: E266 - E291 (0x2c bytes), align: 1
  Segment part 13.            Intra module refs:   Clock_App
           LOCAL                   ADDRESS         
           =====                   =======         
           Clock_App_exit          E266 
               calls direct
               CSTACK = 00000000 ( 00000004 )
    -------------------------------------------------------------------------
DATA16_ID
  Relative segment, address: 6986 - 6986 (0x1 bytes), align: 0
  Segment part 7.             Intra module refs:   setClock
    -------------------------------------------------------------------------
DATA16_ID
  Relative segment, address: 6987 - 6987 (0x1 bytes), align: 0
  Segment part 9.             Intra module refs:   freshFlag
    -------------------------------------------------------------------------
DATA16_ID
  Relative segment, address: 6988 - 6988 (0x1 bytes), align: 0
  Segment part 12.            Intra module refs:   firstEnter

    *************************************************************************

  FILE NAME : C:\jenkins\workspace\MspExp430FR5969\mspexp430fr5869\imports\MSP-EXP430FR5969 Software Examples\Source\430BOOST-SHARP96_ULP_FRAM\IAR\Debug\Obj\comp_e.r43
    *************************************************************************

  FILE NAME : C:\jenkins\workspace\MspExp430FR5969\mspexp430fr5869\imports\MSP-EXP430FR5969 Software Examples\Source\430BOOST-SHARP96_ULP_FRAM\IAR\Debug\Obj\context.r43
  PROGRAM MODULE, NAME : context

  SEGMENTS IN THE MODULE
  ======================
<CODE> 1 (was CODE)
  Relative segment, address: DF1C - DF5B (0x40 bytes), align: 1
  Segment part 3.
           ENTRY                   ADDRESS         REF BY
           =====                   =======         ======
           GrContextInit           DF1C            SystemInit (FR59xx_EXP)
                                                   SystemInitFromLPM35 (FR59xx_EXP)
               CSTACK = 00000000 ( 00000004 )

    *************************************************************************

  FILE NAME : C:\jenkins\workspace\MspExp430FR5969\mspexp430fr5869\imports\MSP-EXP430FR5969 Software Examples\Source\430BOOST-SHARP96_ULP_FRAM\IAR\Debug\Obj\crc.r43
    *************************************************************************

  FILE NAME : C:\jenkins\workspace\MspExp430FR5969\mspexp430fr5869\imports\MSP-EXP430FR5969 Software Examples\Source\430BOOST-SHARP96_ULP_FRAM\IAR\Debug\Obj\cs.r43
  PROGRAM MODULE, NAME : cs

  SEGMENTS IN THE MODULE
  ======================
DATA16_Z
  Relative segment, address: 1C10 - 1C13 (0x4 bytes), align: 1
  Segment part 2.             Intra module refs:   CS_setExternalClockSource
           ENTRY                   ADDRESS         REF BY
           =====                   =======         ======
           CS_LFXTClockFrequency   1C10 
    -------------------------------------------------------------------------
DATA16_Z
  Relative segment, address: 1C14 - 1C17 (0x4 bytes), align: 1
  Segment part 3.             Intra module refs:   CS_setExternalClockSource
           ENTRY                   ADDRESS         REF BY
           =====                   =======         ======
           CS_HFXTClockFrequency   1C14 
    -------------------------------------------------------------------------
<CODE> 1 (was CODE)
  Relative segment, address: E54A - E55F (0x16 bytes), align: 1
  Segment part 25.
           ENTRY                   ADDRESS         REF BY
           =====                   =======         ======
           CS_setExternalClockSource
                                   E54A            SystemInit (FR59xx_EXP)
                                                   SystemInitFromLPM35 (FR59xx_EXP)
               CSTACK = 00000000 ( 00000004 )
    -------------------------------------------------------------------------
<CODE> 1 (was CODE)
  Relative segment, address: CD74 - CE23 (0xb0 bytes), align: 1
  Segment part 24.
           ENTRY                   ADDRESS         REF BY
           =====                   =======         ======
           CS_clockSignalInit      CD74            Active_setClock (ActivePowerMeasure)
                                                   SystemInit (FR59xx_EXP)
                                                   SystemInitFromLPM35 (FR59xx_EXP)
               CSTACK = 00000000 ( 00000006 )
    -------------------------------------------------------------------------
<CODE> 1 (was CODE)
  Relative segment, address: DA96 - DAFF (0x6a bytes), align: 1
  Segment part 23.
           ENTRY                   ADDRESS         REF BY
           =====                   =======         ======
           CS_LFXTStart            DA96            SystemInit (FR59xx_EXP)
                                                   SystemInitFromLPM35 (FR59xx_EXP)
               CSTACK = 00000000 ( 00000004 )
    -------------------------------------------------------------------------
<CODE> 1 (was CODE)
  Relative segment, address: E502 - E519 (0x18 bytes), align: 1
  Segment part 4.
           ENTRY                   ADDRESS         REF BY
           =====                   =======         ======
           CS_setDCOFreq           E502            Active_setClock (ActivePowerMeasure)
                                                   SystemInit (FR59xx_EXP)
                                                   SystemInitFromLPM35 (FR59xx_EXP)
               CSTACK = 00000000 ( 00000004 )

    *************************************************************************

  FILE NAME : C:\jenkins\workspace\MspExp430FR5969\mspexp430fr5869\imports\MSP-EXP430FR5969 Software Examples\Source\430BOOST-SHARP96_ULP_FRAM\IAR\Debug\Obj\CTS_HAL.r43
  PROGRAM MODULE, NAME : CTS_HAL

  SEGMENTS IN THE MODULE
  ======================
DATA16_AN
  Relative segment, address: 0100 - 0101 (0x2 bytes), align: 0
  Segment part 1. ROOT.       Intra module refs:   TI_CTS_RO_CSIO_TA2_WDTA_HAL
           ENTRY                   ADDRESS         REF BY
           =====                   =======         ======
           _A_SFRIE1_L             0100 
           LOCAL                   ADDRESS         
           =====                   =======         
           SFRIE1                  0100 
           SFRIE1_H                0101 
           SFRIE1_L                0100 
    -------------------------------------------------------------------------
DATA16_AN
  Relative segment, address: 0400 - 0401 (0x2 bytes), align: 0
  Segment part 2. ROOT.       Intra module refs:   TI_CTS_RO_CSIO_TA2_WDTA_HAL
           ENTRY                   ADDRESS         REF BY
           =====                   =======         ======
           TA2CTL                  0400 
    -------------------------------------------------------------------------
DATA16_AN
  Relative segment, address: 0402 - 0403 (0x2 bytes), align: 0
  Segment part 3. ROOT.       Intra module refs:   TI_CTS_RO_CSIO_TA2_WDTA_HAL
           ENTRY                   ADDRESS         REF BY
           =====                   =======         ======
           TA2CCTL0                0402 
    -------------------------------------------------------------------------
DATA16_AN
  Relative segment, address: 0412 - 0413 (0x2 bytes), align: 0
  Segment part 4. ROOT.       Intra module refs:   TI_CTS_RO_CSIO_TA2_WDTA_HAL
           ENTRY                   ADDRESS         REF BY
           =====                   =======         ======
           TA2CCR0                 0412 
    -------------------------------------------------------------------------
DATA16_AN
  Relative segment, address: 015C - 015D (0x2 bytes), align: 0
  Segment part 5. ROOT.       Intra module refs:   TI_CTS_RO_CSIO_TA2_WDTA_HAL
                                                   __low_level_init (low_level_init)
           ENTRY                   ADDRESS         REF BY
           =====                   =======         ======
           _A_WDTCTL_L             015C 
           LOCAL                   ADDRESS         
           =====                   =======         
           WDTCTL                  015C 
           WDTCTL_H                015D 
           WDTCTL_L                015C 
    -------------------------------------------------------------------------
<CODE> 1 (was CODE)
  Relative segment, address: C212 - C2EF (0xde bytes), align: 1
  Segment part 9.
           ENTRY                   ADDRESS         REF BY
           =====                   =======         ======
           TI_CTS_RO_CSIO_TA2_WDTA_HAL
                                   C212            TI_CAPT_Raw (CTS_Layer)
               CSTACK = 00000000 ( 00000014 )
    -------------------------------------------------------------------------
ISR_CODE
  Relative segment, address: 4430 - 4437 (0x8 bytes), align: 1
  Segment part 8.             Intra module refs:   watchdog_timer::??INTVEC 98
           ENTRY                   ADDRESS         REF BY
           =====                   =======         ======
           watchdog_timer          4430 
               interrupt function
               CSTACK = 00000000 ( 00000004 )
    -------------------------------------------------------------------------
INTVEC
  Common segment, address: FF90 - FFF3 (0x64 bytes), align: 1
  Segment part 6. ROOT.
           ENTRY                   ADDRESS         REF BY
           =====                   =======         ======
           watchdog_timer::??INTVEC 98
                                   FFF2 

    *************************************************************************

  FILE NAME : C:\jenkins\workspace\MspExp430FR5969\mspexp430fr5869\imports\MSP-EXP430FR5969 Software Examples\Source\430BOOST-SHARP96_ULP_FRAM\IAR\Debug\Obj\CTS_Layer.r43
  PROGRAM MODULE, NAME : CTS_Layer

  SEGMENTS IN THE MODULE
  ======================
DATA16_Z
  Relative segment, address: 1C18 - 1C23 (0xc bytes), align: 1
  Segment part 2.             Intra module refs:   TI_CAPT_Custom
                                                   TI_CAPT_Init_Baseline
                                                   TI_CAPT_Update_Baseline
           ENTRY                   ADDRESS         REF BY
           =====                   =======         ======
           baseCnt                 1C18 
    -------------------------------------------------------------------------
DATA16_Z
  Relative segment, address: 1C24 - 1C29 (0x6 bytes), align: 1
  Segment part 3.             Intra module refs:   TI_CAPT_Update_Baseline
                                                   TI_CAPT_Wheel
           ENTRY                   ADDRESS         REF BY
           =====                   =======         ======
           measCnt                 1C24 
    -------------------------------------------------------------------------
DATA16_I
  Relative segment, address: 1C00 - 1C01 (0x2 bytes), align: 1
  Segment part 4.             Intra module refs:   TI_CAPT_Custom
                                                   TI_CAPT_Wheel
           ENTRY                   ADDRESS         REF BY
           =====                   =======         ======
           ctsStatusReg            1C00 
    -------------------------------------------------------------------------
<CODE> 1 (was CODE)
  Relative segment, address: E6A6 - E6B3 (0xe bytes), align: 1
  Segment part 16.            Intra module refs:   TI_CAPT_Custom
                                                   TI_CAPT_Init_Baseline
                                                   TI_CAPT_Update_Baseline
           ENTRY                   ADDRESS         REF BY
           =====                   =======         ======
           TI_CAPT_Raw             E6A6 
               calls direct
               CSTACK = 00000000 ( 00000004 )
    -------------------------------------------------------------------------
<CODE> 1 (was CODE)
  Relative segment, address: E61C - E62B (0x10 bytes), align: 1
  Segment part 15.
           ENTRY                   ADDRESS         REF BY
           =====                   =======         ======
           TI_CAPT_Init_Baseline   E61C            main (FR59xx_EXP)
               calls direct
               CSTACK = 00000000 ( 00000004 )
    -------------------------------------------------------------------------
<CODE> 1 (was CODE)
  Relative segment, address: DC1C - DC73 (0x58 bytes), align: 1
  Segment part 14.
           ENTRY                   ADDRESS         REF BY
           =====                   =======         ======
           TI_CAPT_Update_Baseline
                                   DC1C            main (FR59xx_EXP)
               calls direct
               CSTACK = 00000000 ( 0000000C )
    -------------------------------------------------------------------------
<CODE> 1 (was CODE)
  Relative segment, address: 80F6 - 8579 (0x484 bytes), align: 1
  Segment part 10.            Intra module refs:   TI_CAPT_Wheel
           ENTRY                   ADDRESS         REF BY
           =====                   =======         ======
           TI_CAPT_Custom          80F6 
               calls direct
               CSTACK = 00000000 ( 0000000C )
    -------------------------------------------------------------------------
<CODE> 1 (was CODE)
  Relative segment, address: 9F70 - A1B1 (0x242 bytes), align: 1
  Segment part 7.
           ENTRY                   ADDRESS         REF BY
           =====                   =======         ======
           TI_CAPT_Wheel           9F70            CTS_getReading (CTS_wolverine)
               calls direct
               CSTACK = 00000000 ( 0000000E )
    -------------------------------------------------------------------------
<CODE> 1 (was CODE)
  Relative segment, address: B018 - B1A3 (0x18c bytes), align: 1
  Segment part 6.             Intra module refs:   TI_CAPT_Wheel
           ENTRY                   ADDRESS         REF BY
           =====                   =======         ======
           Dominant_Element        B018 
               CSTACK = 00000000 ( 00000010 )
    -------------------------------------------------------------------------
DATA16_ID
  Relative segment, address: 6980 - 6981 (0x2 bytes), align: 1
  Segment part 5.             Intra module refs:   ctsStatusReg

    *************************************************************************

  FILE NAME : C:\jenkins\workspace\MspExp430FR5969\mspexp430fr5869\imports\MSP-EXP430FR5969 Software Examples\Source\430BOOST-SHARP96_ULP_FRAM\IAR\Debug\Obj\CTS_wolverine.r43
  PROGRAM MODULE, NAME : CTS_wolverine

  SEGMENTS IN THE MODULE
  ======================
DATA16_Z
  Relative segment, address: 1C2A - 1C2D (0x4 bytes), align: 1
  Segment part 2.             Intra module refs:   CTS_getReading
           ENTRY                   ADDRESS         REF BY
           =====                   =======         ======
           sliderPos               1C2A            Clock_App_init (ClockApp)
                                                   Clock_setParameter (ClockApp)
                                                   Clock_setYear (ClockApp)
                                                   MainMenu (FR59xx_EXP)
                                                   SliderBall_app (Game)
                                                   ULP_subMenu (ULPMeter)
                                                   chooseCacheRatio (ActivePowerMeasure)
                                                   chooseFrequency (ActivePowerMeasure)
                                                   chooseGameMode (Game)
                                                   roundingAlgorithm (Game)
    -------------------------------------------------------------------------
DATA16_Z
  Relative segment, address: 1C2E - 1C31 (0x4 bytes), align: 1
  Segment part 3.             Intra module refs:   CTS_getReading
           ENTRY                   ADDRESS         REF BY
           =====                   =======         ======
           oldSliderPos            1C2E            Clock_App_init (ClockApp)
    -------------------------------------------------------------------------
DATA16_Z
  Relative segment, address: 1C32 - 1C39 (0x8 bytes), align: 1
  Segment part 4.             Intra module refs:   CTS_getReading
           ENTRY                   ADDRESS         REF BY
           =====                   =======         ======
           sliderArray             1C32 
    -------------------------------------------------------------------------
DATA16_Z
  Relative segment, address: 1C6F - 1C70 (0x2 bytes), align: 0
  Segment part 5.             Intra module refs:   CTS_getReading
           ENTRY                   ADDRESS         REF BY
           =====                   =======         ======
           arrayFill               1C6F 
    -------------------------------------------------------------------------
DATA16_I
  Relative segment, address: 1C02 - 1C05 (0x4 bytes), align: 1
  Segment part 6.             Intra module refs:   CTS_getReading
           ENTRY                   ADDRESS         REF BY
           =====                   =======         ======
           sliderPtr               1C02 
    -------------------------------------------------------------------------
<CODE> 1 (was CODE)
  Relative segment, address: 8D12 - 9011 (0x300 bytes), align: 1
  Segment part 8.
           ENTRY                   ADDRESS         REF BY
           =====                   =======         ======
           CTS_getReading          8D12            Clock_setParameter (ClockApp)
                                                   Clock_setYear (ClockApp)
                                                   MainMenu (FR59xx_EXP)
                                                   SliderBall_app (Game)
                                                   ULP_subMenu (ULPMeter)
                                                   chooseCacheRatio (ActivePowerMeasure)
                                                   chooseFrequency (ActivePowerMeasure)
                                                   chooseGameMode (Game)
               calls direct
               CSTACK = 00000000 ( 0000000A )
    -------------------------------------------------------------------------
DATA16_ID
  Relative segment, address: 6982 - 6985 (0x4 bytes), align: 1
  Segment part 7.             Intra module refs:   sliderPtr

    *************************************************************************

  FILE NAME : C:\jenkins\workspace\MspExp430FR5969\mspexp430fr5869\imports\MSP-EXP430FR5969 Software Examples\Source\430BOOST-SHARP96_ULP_FRAM\IAR\Debug\Obj\dma.r43
  PROGRAM MODULE, NAME : dma

  SEGMENTS IN THE MODULE
  ======================
<CODE> 1 (was CODE)
  Relative segment, address: D1FC - D289 (0x8e bytes), align: 1
  Segment part 20.
           ENTRY                   ADDRESS         REF BY
           =====                   =======         ======
           DMA_init                D1FC            FRAM_speedInit (FRAMSpeedApp)
                                                   ULP_sendData (ULPMeter)
               CSTACK = 00000000 ( 0000000C )
    -------------------------------------------------------------------------
<CODE> 1 (was CODE)
  Relative segment, address: E0B6 - E0E9 (0x34 bytes), align: 1
  Segment part 18.
           ENTRY                   ADDRESS         REF BY
           =====                   =======         ======
           DMA_setSrcAddress       E0B6            FRAM_speedInit (FRAMSpeedApp)
                                                   ULP_sendData (ULPMeter)
               CSTACK = 00000000 ( 00000006 )
    -------------------------------------------------------------------------
<CODE> 1 (was CODE)
  Relative segment, address: E080 - E0B5 (0x36 bytes), align: 1
  Segment part 17.
           ENTRY                   ADDRESS         REF BY
           =====                   =======         ======
           DMA_setDstAddress       E080            FRAM_speedInit (FRAMSpeedApp)
                                                   ULP_sendData (ULPMeter)
               CSTACK = 00000000 ( 00000006 )
    -------------------------------------------------------------------------
<CODE> 1 (was CODE)
  Relative segment, address: E63C - E64B (0x10 bytes), align: 1
  Segment part 16.
           ENTRY                   ADDRESS         REF BY
           =====                   =======         ======
           DMA_enableTransfers     E63C            FRAM_speedApp (FRAMSpeedApp)
                                                   FRAM_speedInit (FRAMSpeedApp)
                                                   ULP_sendData (ULPMeter)
               CSTACK = 00000000 ( 00000004 )
    -------------------------------------------------------------------------
<CODE> 1 (was CODE)
  Relative segment, address: E64C - E65B (0x10 bytes), align: 1
  Segment part 15.
           ENTRY                   ADDRESS         REF BY
           =====                   =======         ======
           DMA_disableTransfers    E64C            FRAM_speedApp (FRAMSpeedApp)
                                                   FRAM_speedExit (FRAMSpeedApp)
                                                   ULP_sendData (ULPMeter)
               CSTACK = 00000000 ( 00000004 )
    -------------------------------------------------------------------------
<CODE> 1 (was CODE)
  Relative segment, address: E68A - E697 (0xe bytes), align: 1
  Segment part 13.
           ENTRY                   ADDRESS         REF BY
           =====                   =======         ======
           DMA_enableInterrupt     E68A            FRAM_speedApp (FRAMSpeedApp)
                                                   FRAM_speedInit (FRAMSpeedApp)
                                                   ULP_sendData (ULPMeter)
               CSTACK = 00000000 ( 00000004 )
    -------------------------------------------------------------------------
<CODE> 1 (was CODE)
  Relative segment, address: E6B4 - E6C1 (0xe bytes), align: 1
  Segment part 12.
           ENTRY                   ADDRESS         REF BY
           =====                   =======         ======
           DMA_disableInterrupt    E6B4            FRAM_speedApp (FRAMSpeedApp)
                                                   FRAM_speedExit (FRAMSpeedApp)
               CSTACK = 00000000 ( 00000004 )
    -------------------------------------------------------------------------
<CODE> 1 (was CODE)
  Relative segment, address: E6C2 - E6CF (0xe bytes), align: 1
  Segment part 10.
           ENTRY                   ADDRESS         REF BY
           =====                   =======         ======
           DMA_clearInterrupt      E6C2            DMA_ISR (FRAMSpeedApp)
                                                   FRAM_speedApp (FRAMSpeedApp)
                                                   FRAM_speedExit (FRAMSpeedApp)
               CSTACK = 00000000 ( 00000004 )

    *************************************************************************

  FILE NAME : C:\jenkins\workspace\MspExp430FR5969\mspexp430fr5869\imports\MSP-EXP430FR5969 Software Examples\Source\430BOOST-SHARP96_ULP_FRAM\IAR\Debug\Obj\eusci_a_spi.r43
  PROGRAM MODULE, NAME : eusci_a_spi

  SEGMENTS IN THE MODULE
  ======================
<CODE> 1 (was CODE)
  Relative segment, address: E7C4 - E7C9 (0x6 bytes), align: 1
  Segment part 6.
           ENTRY                   ADDRESS         REF BY
           =====                   =======         ======
           EUSCI_A_SPI_enable      E7C4            eUSCI_turnOn (ActivePowerMeasure)
               CSTACK = 00000000 ( 00000004 )
    -------------------------------------------------------------------------
<CODE> 1 (was CODE)
  Relative segment, address: E7D0 - E7D5 (0x6 bytes), align: 1
  Segment part 5.
           ENTRY                   ADDRESS         REF BY
           =====                   =======         ======
           EUSCI_A_SPI_disable     E7D0            eUSCI_turnOff (ActivePowerMeasure)
               CSTACK = 00000000 ( 00000004 )

    *************************************************************************

  FILE NAME : C:\jenkins\workspace\MspExp430FR5969\mspexp430fr5869\imports\MSP-EXP430FR5969 Software Examples\Source\430BOOST-SHARP96_ULP_FRAM\IAR\Debug\Obj\eusci_a_uart.r43
  PROGRAM MODULE, NAME : eusci_a_uart

  SEGMENTS IN THE MODULE
  ======================
<CODE> 1 (was CODE)
  Relative segment, address: C7C4 - C87D (0xba bytes), align: 1
  Segment part 18.
           ENTRY                   ADDRESS         REF BY
           =====                   =======         ======
           EUSCI_A_UART_initAdvance
                                   C7C4            ULP_sendData (ULPMeter)
               CSTACK = 00000000 ( 00000008 )
    -------------------------------------------------------------------------
<CODE> 1 (was CODE)
  Relative segment, address: E35E - E381 (0x24 bytes), align: 1
  Segment part 17.
           ENTRY                   ADDRESS         REF BY
           =====                   =======         ======
           EUSCI_A_UART_transmitData
                                   E35E            ULP_sendData (ULPMeter)
               CSTACK = 00000000 ( 00000004 )
    -------------------------------------------------------------------------
<CODE> 1 (was CODE)
  Relative segment, address: E7AC - E7B1 (0x6 bytes), align: 1
  Segment part 11.
           ENTRY                   ADDRESS         REF BY
           =====                   =======         ======
           EUSCI_A_UART_enable     E7AC            ULP_sendData (ULPMeter)
               CSTACK = 00000000 ( 00000004 )
    -------------------------------------------------------------------------
<CODE> 1 (was CODE)
  Relative segment, address: E7B2 - E7B7 (0x6 bytes), align: 1
  Segment part 10.
           ENTRY                   ADDRESS         REF BY
           =====                   =======         ======
           EUSCI_A_UART_disable    E7B2            ULP_sendData (ULPMeter)
               CSTACK = 00000000 ( 00000004 )

    *************************************************************************

  FILE NAME : C:\jenkins\workspace\MspExp430FR5969\mspexp430fr5869\imports\MSP-EXP430FR5969 Software Examples\Source\430BOOST-SHARP96_ULP_FRAM\IAR\Debug\Obj\eusci_b_i2c.r43
    *************************************************************************

  FILE NAME : C:\jenkins\workspace\MspExp430FR5969\mspexp430fr5869\imports\MSP-EXP430FR5969 Software Examples\Source\430BOOST-SHARP96_ULP_FRAM\IAR\Debug\Obj\eusci_b_spi.r43
  PROGRAM MODULE, NAME : eusci_b_spi

  SEGMENTS IN THE MODULE
  ======================
<CODE> 1 (was CODE)
  Relative segment, address: DBC4 - DC1B (0x58 bytes), align: 1
  Segment part 17.
           ENTRY                   ADDRESS         REF BY
           =====                   =======         ======
           EUSCI_B_SPI_masterInit
                                   DBC4            Sharp96x96_LCDInit (sharp96x96)
               CSTACK = 00000000 ( 0000000C )
    -------------------------------------------------------------------------
<CODE> 1 (was CODE)
  Relative segment, address: E6D0 - E6DB (0xc bytes), align: 1
  Segment part 12.
           ENTRY                   ADDRESS         REF BY
           =====                   =======         ======
           EUSCI_B_SPI_transmitData
                                   E6D0            LCD_drawPicture (UpdateDisplay)
               CSTACK = 00000000 ( 00000004 )
    -------------------------------------------------------------------------
<CODE> 1 (was CODE)
  Relative segment, address: E73E - E747 (0xa bytes), align: 1
  Segment part 8.
           ENTRY                   ADDRESS         REF BY
           =====                   =======         ======
           EUSCI_B_SPI_getInterruptStatus
                                   E73E            LCD_drawPicture (UpdateDisplay)
               CSTACK = 00000000 ( 00000004 )
    -------------------------------------------------------------------------
<CODE> 1 (was CODE)
  Relative segment, address: E7A0 - E7A5 (0x6 bytes), align: 1
  Segment part 6.
           ENTRY                   ADDRESS         REF BY
           =====                   =======         ======
           EUSCI_B_SPI_enable      E7A0            Sharp96x96_LCDInit (sharp96x96)
               CSTACK = 00000000 ( 00000004 )
    -------------------------------------------------------------------------
<CODE> 1 (was CODE)
  Relative segment, address: E748 - E751 (0xa bytes), align: 1
  Segment part 2.
           ENTRY                   ADDRESS         REF BY
           =====                   =======         ======
           EUSCI_B_SPI_isBusy      E748            LCD_drawPicture (UpdateDisplay)
               CSTACK = 00000000 ( 00000004 )

    *************************************************************************

  FILE NAME : C:\jenkins\workspace\MspExp430FR5969\mspexp430fr5869\imports\MSP-EXP430FR5969 Software Examples\Source\430BOOST-SHARP96_ULP_FRAM\IAR\Debug\Obj\fontcmss12.r43
  PROGRAM MODULE, NAME : fontcmss12

  SEGMENTS IN THE MODULE
  ======================
DATA16_C
  Relative segment, address: 49A0 - 4EB3 (0x514 bytes), align: 0
  Segment part 2.             Intra module refs:   g_sFontCmss12
           LOCAL                   ADDRESS         
           =====                   =======         
           g_pucCmss12Data         49A0 
    -------------------------------------------------------------------------
DATA16_C
  Relative segment, address: 47A2 - 4867 (0xc6 bytes), align: 1
  Segment part 3.
           ENTRY                   ADDRESS         REF BY
           =====                   =======         ======
           g_sFontCmss12           47A2            LCD_activePowerIntro (UpdateDisplay)
                                                   LCD_displayCacheRatioMenu (UpdateDisplay)
                                                   LCD_displayFrequencyMenu (UpdateDisplay)
                                                   LCD_displayMainMenu (UpdateDisplay)
                                                   LCD_displaySendingScreen (UpdateDisplay)
                                                   LCD_displaySpeed (UpdateDisplay)
                                                   LCD_displayULPSubMenu (UpdateDisplay)
                                                   LCD_drawBattery (UpdateDisplay)
                                                   LCD_drawLowBattery (UpdateDisplay)
                                                   LCD_introULP (UpdateDisplay)
                                                   LCD_introWrite (UpdateDisplay)
                                                   LCD_showDataSent (UpdateDisplay)
                                                   LCD_sliderBallMenu (UpdateDisplay)
                                                   LCD_updateClock (UpdateDisplay)
                                                   SliderBall_app (Game)

    *************************************************************************

  FILE NAME : C:\jenkins\workspace\MspExp430FR5969\mspexp430fr5869\imports\MSP-EXP430FR5969 Software Examples\Source\430BOOST-SHARP96_ULP_FRAM\IAR\Debug\Obj\fontcmss32.r43
  PROGRAM MODULE, NAME : fontcmss32

  SEGMENTS IN THE MODULE
  ======================
DATA16_C
  Relative segment, address: 4EB4 - 5BFA (0xd47 bytes), align: 0
  Segment part 2.             Intra module refs:   g_sFontCmss32
           LOCAL                   ADDRESS         
           =====                   =======         
           g_pucCmss32Data         4EB4 
    -------------------------------------------------------------------------
DATA16_C
  Relative segment, address: 4868 - 492D (0xc6 bytes), align: 1
  Segment part 3.
           ENTRY                   ADDRESS         REF BY
           =====                   =======         ======
           g_sFontCmss32           4868            LCD_updateClock (UpdateDisplay)

    *************************************************************************

  FILE NAME : C:\jenkins\workspace\MspExp430FR5969\mspexp430fr5869\imports\MSP-EXP430FR5969 Software Examples\Source\430BOOST-SHARP96_ULP_FRAM\IAR\Debug\Obj\FR59xx_EXP.r43
  PROGRAM MODULE, NAME : FR59xx_EXP

  SEGMENTS IN THE MODULE
  ======================
DATA16_AN
  Relative segment, address: 020E - 020F (0x2 bytes), align: 0
  Segment part 1. ROOT.       Intra module refs:   PORT1_ISR
           ENTRY                   ADDRESS         REF BY
           =====                   =======         ======
           P1IV                    020E 
    -------------------------------------------------------------------------
DATA16_AN
  Relative segment, address: 023E - 023F (0x2 bytes), align: 0
  Segment part 2. ROOT.       Intra module refs:   PORT4_ISR
           ENTRY                   ADDRESS         REF BY
           =====                   =======         ======
           P4IV                    023E 
    -------------------------------------------------------------------------
DATA16_AN
  Relative segment, address: 04AA - 04AB (0x2 bytes), align: 0
  Segment part 3. ROOT.       Intra module refs:   PORT1_ISR
           ENTRY                   ADDRESS         REF BY
           =====                   =======         ======
           _A_RTCPS1CTL_L          04AA 
           LOCAL                   ADDRESS         
           =====                   =======         
           RTCPS1CTL               04AA 
           RTCPS1CTL_H             04AB 
           RTCPS1CTL_L             04AA 
    -------------------------------------------------------------------------
DATA16_AN
  Relative segment, address: 04AE - 04AF (0x2 bytes), align: 0
  Segment part 4. ROOT.       Intra module refs:   RTC_ISR
           ENTRY                   ADDRESS         REF BY
           =====                   =======         ======
           RTCIV                   04AE 
    -------------------------------------------------------------------------
DATA16_AN
  Relative segment, address: 019C - 019D (0x2 bytes), align: 0
  Segment part 6. ROOT.       Intra module refs:   SYSNMI_ISR
           ENTRY                   ADDRESS         REF BY
           =====                   =======         ======
           _A_SYSSNIV_L            019C 
           LOCAL                   ADDRESS         
           =====                   =======         
           SYSSNIV                 019C 
           SYSSNIV_H               019D 
           SYSSNIV_L               019C 
    -------------------------------------------------------------------------
DATA16_AN
  Relative segment, address: 019E - 019F (0x2 bytes), align: 0
  Segment part 7. ROOT.       Intra module refs:   main
           ENTRY                   ADDRESS         REF BY
           =====                   =======         ======
           _A_SYSRSTIV_L           019E 
           LOCAL                   ADDRESS         
           =====                   =======         
           SYSRSTIV                019E 
           SYSRSTIV_H              019F 
           SYSRSTIV_L              019E 
    -------------------------------------------------------------------------
DATA16_Z
  Relative segment, address: 1C71 - 1C71 (0x1 bytes), align: 0
  Segment part 14.            Intra module refs:   MainMenu
                                                   RTC_ISR
                                                   offLED
                                                   onLED
           ENTRY                   ADDRESS         REF BY
           =====                   =======         ======
           startupStatus           1C71 
    -------------------------------------------------------------------------
DATA16_I
  Relative segment, address: 1C09 - 1C09 (0x1 bytes), align: 0
  Segment part 15.            Intra module refs:   PORT1_ISR
                                                   PORT4_ISR
                                                   main
           ENTRY                   ADDRESS         REF BY
           =====                   =======         ======
           mode                    1C09            ActivePowerApp (ActivePowerMeasure)
                                                   Clock_App (ClockApp)
                                                   DMA_ISR (FRAMSpeedApp)
                                                   FRAM_speedApp (FRAMSpeedApp)
                                                   SliderBall_app (Game)
                                                   TA1_ISR (myTimer)
                                                   ULP_meter (ULPMeter)
    -------------------------------------------------------------------------
DATA16_Z
  Relative segment, address: 1C72 - 1C72 (0x1 bytes), align: 0
  Segment part 17.            Intra module refs:   MainMenu
                                                   PORT1_ISR
                                                   PORT4_ISR
                                                   main
           ENTRY                   ADDRESS         REF BY
           =====                   =======         ======
           select                  1C72            ActivePowerApp (ActivePowerMeasure)
                                                   Active_intro (ActivePowerMeasure)
                                                   Clock_App (ClockApp)
                                                   Clock_App_init (ClockApp)
                                                   Clock_setParameter (ClockApp)
                                                   Clock_setYear (ClockApp)
                                                   LCD_updateClock (UpdateDisplay)
                                                   SliderBall_app (Game)
                                                   TA1_ISR (myTimer)
                                                   ULP_meter (ULPMeter)
                                                   ULP_subMenu (ULPMeter)
                                                   chooseCacheRatio (ActivePowerMeasure)
                                                   chooseFrequency (ActivePowerMeasure)
                                                   chooseGameMode (Game)
    -------------------------------------------------------------------------
<CODE> 1 (was CODE)
  Relative segment, address: BA8C - BB8F (0x104 bytes), align: 1
  Segment part 34.
           ENTRY                   ADDRESS         REF BY
           =====                   =======         ======
           main                    BA8C            Segment part 22 (?cstart)
               calls direct
               CSTACK = 00000000 ( 00000006 )
    -------------------------------------------------------------------------
<CODE> 1 (was CODE)
  Relative segment, address: A9D6 - AB6B (0x196 bytes), align: 1
  Segment part 33.            Intra module refs:   main
           ENTRY                   ADDRESS         REF BY
           =====                   =======         ======
           SystemInit              A9D6 
               calls direct and indirect
               CSTACK = 00000000 ( 00000014 )
    -------------------------------------------------------------------------
<CODE> 1 (was CODE)
  Relative segment, address: E62C - E63B (0x10 bytes), align: 1
  Segment part 32.
           ENTRY                   ADDRESS         REF BY
           =====                   =======         ======
           SYS_enterLPM35          E62C            ULP_meter (ULPMeter)
               calls direct
               CSTACK = 00000000 ( 00000004 )
    -------------------------------------------------------------------------
<CODE> 1 (was CODE)
  Relative segment, address: B1A4 - B32B (0x188 bytes), align: 1
  Segment part 31.            Intra module refs:   main
           ENTRY                   ADDRESS         REF BY
           =====                   =======         ======
           SystemInitFromLPM35     B1A4 
               calls direct and indirect
               CSTACK = 00000000 ( 00000014 )
    -------------------------------------------------------------------------
<CODE> 1 (was CODE)
  Relative segment, address: D166 - D1FB (0x96 bytes), align: 1
  Segment part 30.            Intra module refs:   main
           ENTRY                   ADDRESS         REF BY
           =====                   =======         ======
           MainMenu                D166 
               calls direct
               CSTACK = 00000000 ( 00000006 )
    -------------------------------------------------------------------------
<CODE> 1 (was CODE)
  Relative segment, address: E716 - E71F (0xa bytes), align: 1
  Segment part 29.            Intra module refs:   PORT1_ISR
                                                   PORT4_ISR
           ENTRY                   ADDRESS         REF BY
           =====                   =======         ======
           DisableLeftSwitch       E716            ULP_meter (ULPMeter)
               calls direct
               CSTACK = 00000000 ( 00000004 )
    -------------------------------------------------------------------------
<CODE> 1 (was CODE)
  Relative segment, address: E5A2 - E5B5 (0x14 bytes), align: 1
  Segment part 28.            Intra module refs:   TB0_ISR
           ENTRY                   ADDRESS         REF BY
           =====                   =======         ======
           EnableLeftSwitch        E5A2            ULP_meter (ULPMeter)
               calls direct
               CSTACK = 00000000 ( 00000004 )
    -------------------------------------------------------------------------
<CODE> 1 (was CODE)
  Relative segment, address: E78A - E791 (0x8 bytes), align: 1
  Segment part 27.            Intra module refs:   PORT1_ISR
                                                   PORT4_ISR
           ENTRY                   ADDRESS         REF BY
           =====                   =======         ======
           DisableRightSwitch      E78A            ULP_meter (ULPMeter)
               calls direct
               CSTACK = 00000000 ( 00000004 )
    -------------------------------------------------------------------------
<CODE> 1 (was CODE)
  Relative segment, address: E5EC - E5FB (0x10 bytes), align: 1
  Segment part 26.            Intra module refs:   TB0_ISR
           ENTRY                   ADDRESS         REF BY
           =====                   =======         ======
           EnableRightSwitch       E5EC            ULP_meter (ULPMeter)
               calls direct
               CSTACK = 00000000 ( 00000004 )
    -------------------------------------------------------------------------
<CODE> 1 (was CODE)
  Relative segment, address: E452 - E471 (0x20 bytes), align: 1
  Segment part 25.            Intra module refs:   PORT1_ISR
                                                   PORT4_ISR
           ENTRY                   ADDRESS         REF BY
           =====                   =======         ======
           StartDebounceTimer      E452 
               calls direct
               CSTACK = 00000000 ( 0000000C )
    -------------------------------------------------------------------------
<CODE> 1 (was CODE)
  Relative segment, address: E23A - E265 (0x2c bytes), align: 1
  Segment part 24.            Intra module refs:   SystemInit
           ENTRY                   ADDRESS         REF BY
           =====                   =======         ======
           onLED                   E23A 
               calls direct
               CSTACK = 00000000 ( 00000004 )
    -------------------------------------------------------------------------
<CODE> 1 (was CODE)
  Relative segment, address: E310 - E337 (0x28 bytes), align: 1
  Segment part 23.            Intra module refs:   MainMenu
           ENTRY                   ADDRESS         REF BY
           =====                   =======         ======
           offLED                  E310 
               calls direct
               CSTACK = 00000000 ( 00000004 )
    -------------------------------------------------------------------------
ISR_CODE
  Relative segment, address: 4438 - 4597 (0x160 bytes), align: 1
  Segment part 22.            Intra module refs:   PORT1_ISR::??INTVEC 78
           ENTRY                   ADDRESS         REF BY
           =====                   =======         ======
           PORT1_ISR               4438 
               interrupt function
               calls direct
               CSTACK = 00000000 ( 00000010 )
    -------------------------------------------------------------------------
ISR_CODE
  Relative segment, address: 4598 - 4625 (0x8e bytes), align: 1
  Segment part 21.            Intra module refs:   PORT4_ISR::??INTVEC 64
           ENTRY                   ADDRESS         REF BY
           =====                   =======         ======
           PORT4_ISR               4598 
               interrupt function
               calls direct
               CSTACK = 00000000 ( 00000010 )
    -------------------------------------------------------------------------
ISR_CODE
  Relative segment, address: 4626 - 4689 (0x64 bytes), align: 1
  Segment part 20.            Intra module refs:   RTC_ISR::??INTVEC 62
           ENTRY                   ADDRESS         REF BY
           =====                   =======         ======
           RTC_ISR                 4626 
               interrupt function
               calls direct
               CSTACK = 00000000 ( 0000000C )
    -------------------------------------------------------------------------
ISR_CODE
  Relative segment, address: 468A - 46AF (0x26 bytes), align: 1
  Segment part 19.            Intra module refs:   TB0_ISR::??INTVEC 102
           ENTRY                   ADDRESS         REF BY
           =====                   =======         ======
           TB0_ISR                 468A 
               interrupt function
               calls direct
               CSTACK = 00000000 ( 0000000C )
    -------------------------------------------------------------------------
ISR_CODE
  Relative segment, address: 46B0 - 46EB (0x3c bytes), align: 1
  Segment part 18.            Intra module refs:   SYSNMI_ISR::??INTVEC 108
           ENTRY                   ADDRESS         REF BY
           =====                   =======         ======
           SYSNMI_ISR              46B0 
               interrupt function
               calls direct
               CSTACK = 00000000 ( 0000000C )
    -------------------------------------------------------------------------
INTVEC
  Common segment, address: FF90 - FFCF (0x40 bytes), align: 1
  Segment part 8. ROOT.
           ENTRY                   ADDRESS         REF BY
           =====                   =======         ======
           RTC_ISR::??INTVEC 62    FFCE 
    -------------------------------------------------------------------------
INTVEC
  Common segment, address: FF90 - FFD1 (0x42 bytes), align: 1
  Segment part 9. ROOT.
           ENTRY                   ADDRESS         REF BY
           =====                   =======         ======
           PORT4_ISR::??INTVEC 64
                                   FFD0 
    -------------------------------------------------------------------------
INTVEC
  Common segment, address: FF90 - FFDF (0x50 bytes), align: 1
  Segment part 10. ROOT.
           ENTRY                   ADDRESS         REF BY
           =====                   =======         ======
           PORT1_ISR::??INTVEC 78
                                   FFDE 
    -------------------------------------------------------------------------
INTVEC
  Common segment, address: FF90 - FFF7 (0x68 bytes), align: 1
  Segment part 11. ROOT.
           ENTRY                   ADDRESS         REF BY
           =====                   =======         ======
           TB0_ISR::??INTVEC 102   FFF6 
    -------------------------------------------------------------------------
INTVEC
  Common segment, address: FF90 - FFFD (0x6e bytes), align: 1
  Segment part 12. ROOT.
           ENTRY                   ADDRESS         REF BY
           =====                   =======         ======
           SYSNMI_ISR::??INTVEC 108
                                   FFFC 
    -------------------------------------------------------------------------
DATA16_ID
  Relative segment, address: 6989 - 6989 (0x1 bytes), align: 0
  Segment part 16.            Intra module refs:   mode

    *************************************************************************

  FILE NAME : C:\jenkins\workspace\MspExp430FR5969\mspexp430fr5869\imports\MSP-EXP430FR5969 Software Examples\Source\430BOOST-SHARP96_ULP_FRAM\IAR\Debug\Obj\fram.r43
    *************************************************************************

  FILE NAME : C:\jenkins\workspace\MspExp430FR5969\mspexp430fr5869\imports\MSP-EXP430FR5969 Software Examples\Source\430BOOST-SHARP96_ULP_FRAM\IAR\Debug\Obj\FRAMSpeedApp.r43
  PROGRAM MODULE, NAME : FRAMSpeedApp

  SEGMENTS IN THE MODULE
  ======================
DATA16_AN
  Relative segment, address: 0510 - 0511 (0x2 bytes), align: 0
  Segment part 1. ROOT.       Intra module refs:   FRAM_speedApp
           ENTRY                   ADDRESS         REF BY
           =====                   =======         ======
           _A_DMA0CTL_L            0510 
           LOCAL                   ADDRESS         
           =====                   =======         
           DMA0CTL                 0510 
           DMA0CTL_H               0511 
           DMA0CTL_L               0510 
    -------------------------------------------------------------------------
DATA16_AN
  Relative segment, address: F000 - F003 (0x4 bytes), align: 0
  Segment part 2. ROOT.       Intra module refs:   FRAM_speedApp
           ENTRY                   ADDRESS         REF BY
           =====                   =======         ======
           decimalPlaces           F000            main (FR59xx_EXP)
    -------------------------------------------------------------------------
DATA16_Z
  Relative segment, address: 1C3A - 1C3B (0x2 bytes), align: 1
  Segment part 6.             Intra module refs:   FRAM_speedApp
                                                   FRAM_speedInit
                                                   TA3_ISR
           ENTRY                   ADDRESS         REF BY
           =====                   =======         ======
           timerA3InterruptCounter
                                   1C3A 
    -------------------------------------------------------------------------
DATA16_Z
  Relative segment, address: 1C3C - 1C3D (0x2 bytes), align: 1
  Segment part 7.             Intra module refs:   DMA_ISR
                                                   FRAM_speedApp
           ENTRY                   ADDRESS         REF BY
           =====                   =======         ======
           count                   1C3C 
    -------------------------------------------------------------------------
DATA16_Z
  Relative segment, address: 1C3E - 1C3F (0x2 bytes), align: 1
  Segment part 8.             Intra module refs:   FRAM_speedInit
           ENTRY                   ADDRESS         REF BY
           =====                   =======         ======
           data                    1C3E 
    -------------------------------------------------------------------------
DATA16_Z
  Relative segment, address: 1C40 - 1C43 (0x4 bytes), align: 1
  Segment part 9.             Intra module refs:   FRAM_speedApp
                                                   FRAM_speedInit
           ENTRY                   ADDRESS         REF BY
           =====                   =======         ======
           kBytes                  1C40 
    -------------------------------------------------------------------------
DATA16_Z
  Relative segment, address: 1C44 - 1C47 (0x4 bytes), align: 1
  Segment part 10.            Intra module refs:   FRAM_speedApp
                                                   FRAM_speedInit
           ENTRY                   ADDRESS         REF BY
           =====                   =======         ======
           totKB                   1C44 
    -------------------------------------------------------------------------
<CODE> 1 (was CODE)
  Relative segment, address: C936 - C9EB (0xb6 bytes), align: 1
  Segment part 15.
           ENTRY                   ADDRESS         REF BY
           =====                   =======         ======
           FRAM_speedApp           C936            main (FR59xx_EXP)
               calls direct
               CSTACK = 00000000 ( 00000008 )
    -------------------------------------------------------------------------
<CODE> 1 (was CODE)
  Relative segment, address: D0CA - D165 (0x9c bytes), align: 1
  Segment part 14.            Intra module refs:   FRAM_speedApp
           LOCAL                   ADDRESS         
           =====                   =======         
           FRAM_speedInit          D0CA 
               calls direct
               CSTACK = 00000000 ( 0000001C )
    -------------------------------------------------------------------------
<CODE> 1 (was CODE)
  Relative segment, address: DFD6 - E00F (0x3a bytes), align: 1
  Segment part 13.            Intra module refs:   FRAM_speedApp
           LOCAL                   ADDRESS         
           =====                   =======         
           FRAM_speedExit          DFD6 
               calls direct
               CSTACK = 00000000 ( 00000004 )
    -------------------------------------------------------------------------
ISR_CODE
  Relative segment, address: 46EC - 46F1 (0x6 bytes), align: 1
  Segment part 12.            Intra module refs:   TA3_ISR::??INTVEC 70
           ENTRY                   ADDRESS         REF BY
           =====                   =======         ======
           TA3_ISR                 46EC 
               interrupt function
               CSTACK = 00000000 ( 00000004 )
    -------------------------------------------------------------------------
ISR_CODE
  Relative segment, address: 46F2 - 4715 (0x24 bytes), align: 1
  Segment part 11.            Intra module refs:   DMA_ISR::??INTVEC 84
           ENTRY                   ADDRESS         REF BY
           =====                   =======         ======
           DMA_ISR                 46F2 
               interrupt function
               calls direct
               CSTACK = 00000000 ( 0000000C )
    -------------------------------------------------------------------------
INTVEC
  Common segment, address: FF90 - FFD7 (0x48 bytes), align: 1
  Segment part 3. ROOT.
           ENTRY                   ADDRESS         REF BY
           =====                   =======         ======
           TA3_ISR::??INTVEC 70    FFD6 
    -------------------------------------------------------------------------
INTVEC
  Common segment, address: FF90 - FFE5 (0x56 bytes), align: 1
  Segment part 4. ROOT.
           ENTRY                   ADDRESS         REF BY
           =====                   =======         ======
           DMA_ISR::??INTVEC 84    FFE4 

    *************************************************************************

  FILE NAME : C:\jenkins\workspace\MspExp430FR5969\mspexp430fr5869\imports\MSP-EXP430FR5969 Software Examples\Source\430BOOST-SHARP96_ULP_FRAM\IAR\Debug\Obj\Game.r43
  PROGRAM MODULE, NAME : Game

  SEGMENTS IN THE MODULE
  ======================
DATA16_AN
  Relative segment, address: F004 - F007 (0x4 bytes), align: 0
  Segment part 1. ROOT.       Intra module refs:   SliderBall_app
           ENTRY                   ADDRESS         REF BY
           =====                   =======         ======
           HighScore               F004            LCD_displayGameOver (UpdateDisplay)
                                                   LCD_displayNewHighScore (UpdateDisplay)
                                                   main (FR59xx_EXP)
    -------------------------------------------------------------------------
DATA16_I
  Relative segment, address: 1C0A - 1C0A (0x1 bytes), align: 0
  Segment part 3.             Intra module refs:   collisionDetect
           ENTRY                   ADDRESS         REF BY
           =====                   =======         ======
           MIN_Y                   1C0A 
    -------------------------------------------------------------------------
DATA16_I
  Relative segment, address: 1C0B - 1C0B (0x1 bytes), align: 0
  Segment part 5.             Intra module refs:   collisionDetect
           ENTRY                   ADDRESS         REF BY
           =====                   =======         ======
           MAX_Y                   1C0B 
    -------------------------------------------------------------------------
DATA16_I
  Relative segment, address: 1C0C - 1C0C (0x1 bytes), align: 0
  Segment part 7.             Intra module refs:   collisionDetect
           ENTRY                   ADDRESS         REF BY
           =====                   =======         ======
           MIN_X                   1C0C 
    -------------------------------------------------------------------------
DATA16_I
  Relative segment, address: 1C0D - 1C0D (0x1 bytes), align: 0
  Segment part 9.             Intra module refs:   collisionDetect
           ENTRY                   ADDRESS         REF BY
           =====                   =======         ======
           MAX_X                   1C0D 
    -------------------------------------------------------------------------
DATA16_Z
  Relative segment, address: 1C73 - 1C73 (0x1 bytes), align: 0
  Segment part 11.            Intra module refs:   SliderBall_app
                                                   collisionDetect
           ENTRY                   ADDRESS         REF BY
           =====                   =======         ======
           x                       1C73 
    -------------------------------------------------------------------------
DATA16_Z
  Relative segment, address: 1C74 - 1C74 (0x1 bytes), align: 0
  Segment part 12.            Intra module refs:   SliderBall_app
                                                   collisionDetect
           ENTRY                   ADDRESS         REF BY
           =====                   =======         ======
           y                       1C74 
    -------------------------------------------------------------------------
DATA16_Z
  Relative segment, address: 1C75 - 1C75 (0x1 bytes), align: 0
  Segment part 13.            Intra module refs:   SliderBall_app
                                                   chooseGameMode
                                                   collisionDetect
           ENTRY                   ADDRESS         REF BY
           =====                   =======         ======
           dx                      1C75 
    -------------------------------------------------------------------------
DATA16_Z
  Relative segment, address: 1C76 - 1C76 (0x1 bytes), align: 0
  Segment part 14.            Intra module refs:   SliderBall_app
                                                   chooseGameMode
                                                   collisionDetect
           ENTRY                   ADDRESS         REF BY
           =====                   =======         ======
           dy                      1C76 
    -------------------------------------------------------------------------
DATA16_Z
  Relative segment, address: 1C77 - 1C77 (0x1 bytes), align: 0
  Segment part 17.            Intra module refs:   SliderBall_app
           ENTRY                   ADDRESS         REF BY
           =====                   =======         ======
           gameMode                1C77 
    -------------------------------------------------------------------------
DATA16_Z
  Relative segment, address: 1C78 - 1C78 (0x1 bytes), align: 0
  Segment part 18.            Intra module refs:   SliderBall_app
                                                   collisionDetect
           ENTRY                   ADDRESS         REF BY
           =====                   =======         ======
           gameSpeedX              1C78 
    -------------------------------------------------------------------------
DATA16_Z
  Relative segment, address: 1C79 - 1C79 (0x1 bytes), align: 0
  Segment part 19.            Intra module refs:   SliderBall_app
                                                   collisionDetect
           ENTRY                   ADDRESS         REF BY
           =====                   =======         ======
           gameSpeedY              1C79 
    -------------------------------------------------------------------------
DATA16_Z
  Relative segment, address: 1C48 - 1C49 (0x2 bytes), align: 1
  Segment part 20.            Intra module refs:   SliderBall_app
                                                   collisionDetect
           ENTRY                   ADDRESS         REF BY
           =====                   =======         ======
           lives                   1C48 
    -------------------------------------------------------------------------
DATA16_Z
  Relative segment, address: 1C4A - 1C4B (0x2 bytes), align: 1
  Segment part 21.            Intra module refs:   SliderBall_app
                                                   collisionDetect
           ENTRY                   ADDRESS         REF BY
           =====                   =======         ======
           score                   1C4A 
    -------------------------------------------------------------------------
DATA16_Z
  Relative segment, address: 1C4C - 1C4D (0x2 bytes), align: 1
  Segment part 22.            Intra module refs:   chooseGameMode
                                                   collisionDetect
           ENTRY                   ADDRESS         REF BY
           =====                   =======         ======
           scoreMultiplier         1C4C 
    -------------------------------------------------------------------------
DATA16_Z
  Relative segment, address: 1C7A - 1C7A (0x1 bytes), align: 0
  Segment part 23.            Intra module refs:   SliderBall_app
                                                   collisionDetect
           ENTRY                   ADDRESS         REF BY
           =====                   =======         ======
           missed                  1C7A 
    -------------------------------------------------------------------------
<CODE> 1 (was CODE)
  Relative segment, address: B32C - B4A5 (0x17a bytes), align: 1
  Segment part 27.
           ENTRY                   ADDRESS         REF BY
           =====                   =======         ======
           SliderBall_app          B32C            main (FR59xx_EXP)
               calls direct and indirect
               CSTACK = 00000000 ( 00000014 )
    -------------------------------------------------------------------------
<CODE> 1 (was CODE)
  Relative segment, address: AB6C - ACFB (0x190 bytes), align: 1
  Segment part 26.            Intra module refs:   SliderBall_app
           LOCAL                   ADDRESS         
           =====                   =======         
           collisionDetect         AB6C 
               calls direct
               CSTACK = 00000000 ( 0000000C )
    -------------------------------------------------------------------------
<CODE> 1 (was CODE)
  Relative segment, address: D516 - D593 (0x7e bytes), align: 1
  Segment part 25.            Intra module refs:   SliderBall_app
           LOCAL                   ADDRESS         
           =====                   =======         
           chooseGameMode          D516 
               calls direct
               CSTACK = 00000000 ( 00000006 )
    -------------------------------------------------------------------------
<CODE> 1 (was CODE)
  Relative segment, address: DF5C - DF99 (0x3e bytes), align: 1
  Segment part 24.            Intra module refs:   SliderBall_app
           LOCAL                   ADDRESS         
           =====                   =======         
           roundingAlgorithm       DF5C 
               CSTACK = 00000000 ( 00000004 )
    -------------------------------------------------------------------------
DATA16_ID
  Relative segment, address: 698A - 698A (0x1 bytes), align: 0
  Segment part 4.             Intra module refs:   MIN_Y
    -------------------------------------------------------------------------
DATA16_ID
  Relative segment, address: 698B - 698B (0x1 bytes), align: 0
  Segment part 6.             Intra module refs:   MAX_Y
    -------------------------------------------------------------------------
DATA16_ID
  Relative segment, address: 698C - 698C (0x1 bytes), align: 0
  Segment part 8.             Intra module refs:   MIN_X
    -------------------------------------------------------------------------
DATA16_ID
  Relative segment, address: 698D - 698D (0x1 bytes), align: 0
  Segment part 10.            Intra module refs:   MAX_X

    *************************************************************************

  FILE NAME : C:\jenkins\workspace\MspExp430FR5969\mspexp430fr5869\imports\MSP-EXP430FR5969 Software Examples\Source\430BOOST-SHARP96_ULP_FRAM\IAR\Debug\Obj\gpio.r43
  PROGRAM MODULE, NAME : gpio

  SEGMENTS IN THE MODULE
  ======================
<CODE> 1 (was CODE)
  Relative segment, address: DB64 - DBC3 (0x60 bytes), align: 1
  Segment part 17.            Intra module refs:   GPIO_clearInterruptFlag
                                                   GPIO_disableInterrupt
                                                   GPIO_enableInterrupt
                                                   GPIO_interruptEdgeSelect
                                                   GPIO_setAsInputPin
                                                   GPIO_setAsInputPinWithPullUpresistor
                                                   GPIO_setAsOutputPin
                                                   GPIO_setAsPeripheralModuleFunctionInputPin
                                                   GPIO_setAsPeripheralModuleFunctionOutputPin
                                                   GPIO_setOutputHighOnPin
                                                   GPIO_setOutputLowOnPin
                                                   GPIO_toggleOutputOnPin
           LOCAL                   ADDRESS         
           =====                   =======         
           privateGPIOGetBaseAddress
                                   DB64 
               CSTACK = 00000000 ( 00000004 )
    -------------------------------------------------------------------------
<CODE> 1 (was CODE)
  Relative segment, address: C9EC - CAA1 (0xb6 bytes), align: 1
  Segment part 16.
           ENTRY                   ADDRESS         REF BY
           =====                   =======         ======
           GPIO_setAsOutputPin     C9EC            ActivePowerApp (ActivePowerMeasure)
                                                   Clock_App_init (ClockApp)
                                                   Sharp96x96_LCDInit (sharp96x96)
                                                   SystemInit (FR59xx_EXP)
                                                   SystemInitFromLPM35 (FR59xx_EXP)
                                                   ULP_meter (ULPMeter)
               calls direct
               CSTACK = 00000000 ( 00000008 )
    -------------------------------------------------------------------------
<CODE> 1 (was CODE)
  Relative segment, address: C3C8 - C49B (0xd4 bytes), align: 1
  Segment part 15.
           ENTRY                   ADDRESS         REF BY
           =====                   =======         ======
           GPIO_setAsInputPin      C3C8            ActivePowerApp (ActivePowerMeasure)
                                                   Clock_App_exit (ClockApp)
                                                   SystemInit (FR59xx_EXP)
                                                   ULP_meter (ULPMeter)
               calls direct
               CSTACK = 00000000 ( 00000008 )
    -------------------------------------------------------------------------
<CODE> 1 (was CODE)
  Relative segment, address: ACFC - AE89 (0x18e bytes), align: 1
  Segment part 14.
           ENTRY                   ADDRESS         REF BY
           =====                   =======         ======
           GPIO_setAsPeripheralModuleFunctionOutputPin
                                   ACFC            Sharp96x96_LCDInit (sharp96x96)
               calls direct
               CSTACK = 00000000 ( 0000000C )
    -------------------------------------------------------------------------
<CODE> 1 (was CODE)
  Relative segment, address: AE8A - B017 (0x18e bytes), align: 1
  Segment part 13.
           ENTRY                   ADDRESS         REF BY
           =====                   =======         ======
           GPIO_setAsPeripheralModuleFunctionInputPin
                                   AE8A            SystemInit (FR59xx_EXP)
                                                   SystemInitFromLPM35 (FR59xx_EXP)
                                                   ULP_sendData (ULPMeter)
               calls direct
               CSTACK = 00000000 ( 0000000C )
    -------------------------------------------------------------------------
<CODE> 1 (was CODE)
  Relative segment, address: D688 - D701 (0x7a bytes), align: 1
  Segment part 12.
           ENTRY                   ADDRESS         REF BY
           =====                   =======         ======
           GPIO_setOutputHighOnPin
                                   D688            LCD_drawPicture (UpdateDisplay)
                                                   SYSNMI_ISR (FR59xx_EXP)
                                                   Sharp96x96_Flush (sharp96x96)
                                                   Sharp96x96_LCDInit (sharp96x96)
                                                   Sharp96x96_SendToggleVCOMCommand (sharp96x96)
               calls direct
               CSTACK = 00000000 ( 00000008 )
    -------------------------------------------------------------------------
<CODE> 1 (was CODE)
  Relative segment, address: D594 - D60D (0x7a bytes), align: 1
  Segment part 11.
           ENTRY                   ADDRESS         REF BY
           =====                   =======         ======
           GPIO_setOutputLowOnPin
                                   D594            LCD_drawPicture (UpdateDisplay)
                                                   Sharp96x96_Flush (sharp96x96)
                                                   Sharp96x96_SendToggleVCOMCommand (sharp96x96)
                                                   SystemInit (FR59xx_EXP)
                                                   SystemInitFromLPM35 (FR59xx_EXP)
                                                   offLED (FR59xx_EXP)
               calls direct
               CSTACK = 00000000 ( 00000008 )
    -------------------------------------------------------------------------
<CODE> 1 (was CODE)
  Relative segment, address: D702 - D77B (0x7a bytes), align: 1
  Segment part 10.
           ENTRY                   ADDRESS         REF BY
           =====                   =======         ======
           GPIO_toggleOutputOnPin
                                   D702            RTC_ISR (FR59xx_EXP)
               calls direct
               CSTACK = 00000000 ( 00000008 )
    -------------------------------------------------------------------------
<CODE> 1 (was CODE)
  Relative segment, address: BC8A - BD77 (0xee bytes), align: 1
  Segment part 8.
           ENTRY                   ADDRESS         REF BY
           =====                   =======         ======
           GPIO_setAsInputPinWithPullUpresistor
                                   BC8A            SystemInit (FR59xx_EXP)
                                                   SystemInitFromLPM35 (FR59xx_EXP)
               calls direct
               CSTACK = 00000000 ( 00000008 )
    -------------------------------------------------------------------------
<CODE> 1 (was CODE)
  Relative segment, address: D498 - D515 (0x7e bytes), align: 1
  Segment part 6.
           ENTRY                   ADDRESS         REF BY
           =====                   =======         ======
           GPIO_enableInterrupt    D498            EnableLeftSwitch (FR59xx_EXP)
                                                   EnableRightSwitch (FR59xx_EXP)
                                                   SystemInit (FR59xx_EXP)
                                                   SystemInitFromLPM35 (FR59xx_EXP)
               calls direct
               CSTACK = 00000000 ( 00000008 )
    -------------------------------------------------------------------------
<CODE> 1 (was CODE)
  Relative segment, address: D39C - D419 (0x7e bytes), align: 1
  Segment part 5.
           ENTRY                   ADDRESS         REF BY
           =====                   =======         ======
           GPIO_disableInterrupt   D39C            DisableLeftSwitch (FR59xx_EXP)
                                                   DisableRightSwitch (FR59xx_EXP)
               calls direct
               CSTACK = 00000000 ( 00000008 )
    -------------------------------------------------------------------------
<CODE> 1 (was CODE)
  Relative segment, address: D41A - D497 (0x7e bytes), align: 1
  Segment part 3.
           ENTRY                   ADDRESS         REF BY
           =====                   =======         ======
           GPIO_clearInterruptFlag
                                   D41A            EnableLeftSwitch (FR59xx_EXP)
                                                   EnableRightSwitch (FR59xx_EXP)
                                                   SystemInit (FR59xx_EXP)
               calls direct
               CSTACK = 00000000 ( 00000008 )
    -------------------------------------------------------------------------
<CODE> 1 (was CODE)
  Relative segment, address: CED0 - CF79 (0xaa bytes), align: 1
  Segment part 2.
           ENTRY                   ADDRESS         REF BY
           =====                   =======         ======
           GPIO_interruptEdgeSelect
                                   CED0            SystemInit (FR59xx_EXP)
                                                   SystemInitFromLPM35 (FR59xx_EXP)
               calls direct
               CSTACK = 00000000 ( 0000000C )

    *************************************************************************

  FILE NAME : C:\jenkins\workspace\MspExp430FR5969\mspexp430fr5869\imports\MSP-EXP430FR5969 Software Examples\Source\430BOOST-SHARP96_ULP_FRAM\IAR\Debug\Obj\image.r43
    *************************************************************************

  FILE NAME : C:\jenkins\workspace\MspExp430FR5969\mspexp430fr5869\imports\MSP-EXP430FR5969 Software Examples\Source\430BOOST-SHARP96_ULP_FRAM\IAR\Debug\Obj\line.r43
  PROGRAM MODULE, NAME : line

  SEGMENTS IN THE MODULE
  ======================
<CODE> 1 (was CODE)
  Relative segment, address: BF54 - C041 (0xee bytes), align: 1
  Segment part 6.             Intra module refs:   GrLineDraw
           ENTRY                   ADDRESS         REF BY
           =====                   =======         ======
           GrLineDrawH             BF54            GrStringDraw (string)
                                                   LCD_displayCacheRatioMenu (UpdateDisplay)
                                                   LCD_displayFrequencyMenu (UpdateDisplay)
                                                   LCD_displayMainMenu (UpdateDisplay)
                                                   LCD_displaySpeed (UpdateDisplay)
                                                   LCD_displayULPSubMenu (UpdateDisplay)
                                                   LCD_drawBattery (UpdateDisplay)
                                                   LCD_drawLowBattery (UpdateDisplay)
                                                   LCD_sliderBallMenu (UpdateDisplay)
                                                   SliderBall_app (Game)
               calls indirect
               CSTACK = 00000000 ( 00000012 )
    -------------------------------------------------------------------------
<CODE> 1 (was CODE)
  Relative segment, address: BD78 - BE65 (0xee bytes), align: 1
  Segment part 5.             Intra module refs:   GrLineDraw
           ENTRY                   ADDRESS         REF BY
           =====                   =======         ======
           GrLineDrawV             BD78            LCD_drawBattery (UpdateDisplay)
                                                   LCD_drawLowBattery (UpdateDisplay)
                                                   LCD_drawSliderBall (UpdateDisplay)
               calls indirect
               CSTACK = 00000000 ( 00000012 )
    -------------------------------------------------------------------------
<CODE> 1 (was CODE)
  Relative segment, address: D86E - D8E1 (0x74 bytes), align: 1
  Segment part 4.             Intra module refs:   GrLineClip
           LOCAL                   ADDRESS         
           =====                   =======         
           GrClipCodeGet           D86E 
               CSTACK = 00000000 ( 0000000E )
    -------------------------------------------------------------------------
<CODE> 1 (was CODE)
  Relative segment, address: A3D4 - A5F3 (0x220 bytes), align: 1
  Segment part 3.             Intra module refs:   GrLineDraw
           LOCAL                   ADDRESS         
           =====                   =======         
           GrLineClip              A3D4 
               calls direct
               CSTACK = 00000000 ( 00000022 )
    -------------------------------------------------------------------------
<CODE> 1 (was CODE)
  Relative segment, address: 9306 - 95E9 (0x2e4 bytes), align: 1
  Segment part 2.
           ENTRY                   ADDRESS         REF BY
           =====                   =======         ======
           GrLineDraw              9306            LCD_drawLowBattery (UpdateDisplay)
               calls direct and indirect
               CSTACK = 00000000 ( 0000002C )

    *************************************************************************

  FILE NAME : C:\jenkins\workspace\MspExp430FR5969\mspexp430fr5869\imports\MSP-EXP430FR5969 Software Examples\Source\430BOOST-SHARP96_ULP_FRAM\IAR\Debug\Obj\low_level_init.r43
  PROGRAM MODULE, NAME : low_level_init

  SEGMENTS IN THE MODULE
  ======================
<CODE> 1 (was CODE)
  Relative segment, address: E734 - E73D (0xa bytes), align: 1
  Segment part 3. ROOT.
           ENTRY                   ADDRESS         REF BY
           =====                   =======         ======
           __low_level_init        E734            ?cstart_call_low_level_init (?cstart)
               CSTACK = 00000000 ( 00000004 )

    *************************************************************************

  FILE NAME : C:\jenkins\workspace\MspExp430FR5969\mspexp430fr5869\imports\MSP-EXP430FR5969 Software Examples\Source\430BOOST-SHARP96_ULP_FRAM\IAR\Debug\Obj\mpu.r43
  PROGRAM MODULE, NAME : mpu

  SEGMENTS IN THE MODULE
  ======================
<CODE> 1 (was CODE)
  Relative segment, address: C49C - C56D (0xd2 bytes), align: 1
  Segment part 10.
           ENTRY                   ADDRESS         REF BY
           =====                   =======         ======
           MPU_createTwoSegments   C49C            main (FR59xx_EXP)
               CSTACK = 00000000 ( 00000006 )
    -------------------------------------------------------------------------
<CODE> 1 (was CODE)
  Relative segment, address: E472 - E48F (0x1e bytes), align: 1
  Segment part 7.
           ENTRY                   ADDRESS         REF BY
           =====                   =======         ======
           MPU_start               E472            main (FR59xx_EXP)
               CSTACK = 00000000 ( 00000004 )
    -------------------------------------------------------------------------
<CODE> 1 (was CODE)
  Relative segment, address: E4AE - E4CB (0x1e bytes), align: 1
  Segment part 3.
           ENTRY                   ADDRESS         REF BY
           =====                   =======         ======
           MPU_clearInterruptFlag
                                   E4AE            SYSNMI_ISR (FR59xx_EXP)
               CSTACK = 00000000 ( 00000004 )

    *************************************************************************

  FILE NAME : C:\jenkins\workspace\MspExp430FR5969\mspexp430fr5869\imports\MSP-EXP430FR5969 Software Examples\Source\430BOOST-SHARP96_ULP_FRAM\IAR\Debug\Obj\mpy32.r43
    *************************************************************************

  FILE NAME : C:\jenkins\workspace\MspExp430FR5969\mspexp430fr5869\imports\MSP-EXP430FR5969 Software Examples\Source\430BOOST-SHARP96_ULP_FRAM\IAR\Debug\Obj\msp430fr59xx_CHR.r43
  PROGRAM MODULE, NAME : msp430fr59xx_CHR

Absolute parts
           LOCAL                   ADDRESS         
           =====                   =======         
           __MSP430i2020__         0000 
  SEGMENTS IN THE MODULE
  ======================
<CODE> 1 (was CODE)
  Relative segment, address: 857A - 8989 (0x410 bytes), align: 1
  Segment part 0. ROOT.
           ENTRY                   ADDRESS         REF BY
           =====                   =======         ======
           CHR_prep                857A            PORT1_ISR (FR59xx_EXP)
                                                   PORT4_ISR (FR59xx_EXP)
           fram_chr_50             867A            ActivePowerApp (ActivePowerMeasure)
           fram_chr_66             877A            ActivePowerApp (ActivePowerMeasure)
           fram_chr_75             87D6            ActivePowerApp (ActivePowerMeasure)
           fram_chr_100            897A            ActivePowerApp (ActivePowerMeasure)
           LOCAL                   ADDRESS         
           =====                   =======         
           chr_50_0                868E 
           chr_50_exit_loop        86F8 
           chr_50_1                86A2 
           chr_50_2                86B2 
           chr_50_3                86C2 
           chr_50_4                86D2 
           chr_50_5                86E2 
           chr_50_6                86F2 
           chr_66_0                877C 
           chr_66_exit_loop        87D4 
           chr_66_1                878C 
           chr_66_2                879C 
           chr_66_3                87AC 
           chr_66_4                87BC 
           chr_66_5                87CC 
           chr_75_0                887A 
           chr_75_exit_loop        88C4 
           chr_75_1                888A 
           chr_75_2                889A 
           chr_75_3                88AA 
           chr_75_4                88BA 
           chr_100_0               8982 
           chr_100_exit_loop       8988 

    *************************************************************************

  FILE NAME : C:\jenkins\workspace\MspExp430FR5969\mspexp430fr5869\imports\MSP-EXP430FR5969 Software Examples\Source\430BOOST-SHARP96_ULP_FRAM\IAR\Debug\Obj\myTimer.r43
  PROGRAM MODULE, NAME : myTimer

  SEGMENTS IN THE MODULE
  ======================
<CODE> 1 (was CODE)
  Relative segment, address: E382 - E3A5 (0x24 bytes), align: 1
  Segment part 9.
           ENTRY                   ADDRESS         REF BY
           =====                   =======         ======
           TA1_sleep               E382            Clock_setParameter (ClockApp)
                                                   Clock_setYear (ClockApp)
                                                   SliderBall_app (Game)
                                                   ULP_meter (ULPMeter)
                                                   main (FR59xx_EXP)
               calls direct
               CSTACK = 00000000 ( 0000000C )
    -------------------------------------------------------------------------
<CODE> 1 (was CODE)
  Relative segment, address: E432 - E451 (0x20 bytes), align: 1
  Segment part 8.
           ENTRY                   ADDRESS         REF BY
           =====                   =======         ======
           TA0_enableVCOMToggle    E432            ActivePowerApp (ActivePowerMeasure)
                                                   SystemInit (FR59xx_EXP)
                                                   ULP_meter (ULPMeter)
               calls direct
               CSTACK = 00000000 ( 0000000C )
    -------------------------------------------------------------------------
<CODE> 1 (was CODE)
  Relative segment, address: E576 - E58B (0x16 bytes), align: 1
  Segment part 7.
           ENTRY                   ADDRESS         REF BY
           =====                   =======         ======
           TA1_turnOff             E576            ULP_meter (ULPMeter)
               calls direct
               CSTACK = 00000000 ( 00000004 )
    -------------------------------------------------------------------------
<CODE> 1 (was CODE)
  Relative segment, address: E560 - E575 (0x16 bytes), align: 1
  Segment part 6.
           ENTRY                   ADDRESS         REF BY
           =====                   =======         ======
           TA0_turnOff             E560            ActivePowerApp (ActivePowerMeasure)
                                                   ULP_meter (ULPMeter)
               calls direct
               CSTACK = 00000000 ( 00000004 )
    -------------------------------------------------------------------------
ISR_CODE
  Relative segment, address: 4716 - 4741 (0x2c bytes), align: 1
  Segment part 5.             Intra module refs:   TA1_ISR::??INTVEC 82
           ENTRY                   ADDRESS         REF BY
           =====                   =======         ======
           TA1_ISR                 4716 
               interrupt function
               calls direct
               CSTACK = 00000000 ( 0000000C )
    -------------------------------------------------------------------------
ISR_CODE
  Relative segment, address: 4742 - 474B (0xa bytes), align: 1
  Segment part 4.             Intra module refs:   TA0_ISR::??INTVEC 90
           ENTRY                   ADDRESS         REF BY
           =====                   =======         ======
           TA0_ISR                 4742 
               interrupt function
               calls direct
               CSTACK = 00000000 ( 0000000C )
    -------------------------------------------------------------------------
INTVEC
  Common segment, address: FF90 - FFE3 (0x54 bytes), align: 1
  Segment part 1. ROOT.
           ENTRY                   ADDRESS         REF BY
           =====                   =======         ======
           TA1_ISR::??INTVEC 82    FFE2 
    -------------------------------------------------------------------------
INTVEC
  Common segment, address: FF90 - FFEB (0x5c bytes), align: 1
  Segment part 2. ROOT.
           ENTRY                   ADDRESS         REF BY
           =====                   =======         ======
           TA0_ISR::??INTVEC 90    FFEA 

    *************************************************************************

  FILE NAME : C:\jenkins\workspace\MspExp430FR5969\mspexp430fr5869\imports\MSP-EXP430FR5969 Software Examples\Source\430BOOST-SHARP96_ULP_FRAM\IAR\Debug\Obj\pmm.r43
  PROGRAM MODULE, NAME : pmm

  SEGMENTS IN THE MODULE
  ======================
<CODE> 1 (was CODE)
  Relative segment, address: E4E8 - E501 (0x1a bytes), align: 1
  Segment part 8.
           ENTRY                   ADDRESS         REF BY
           =====                   =======         ======
           PMM_regOff              E4E8            SYS_enterLPM35 (FR59xx_EXP)
               CSTACK = 00000000 ( 00000004 )
    -------------------------------------------------------------------------
<CODE> 1 (was CODE)
  Relative segment, address: E752 - E75B (0xa bytes), align: 1
  Segment part 2.
           ENTRY                   ADDRESS         REF BY
           =====                   =======         ======
           PMM_unlockLPM5          E752            SystemInit (FR59xx_EXP)
                                                   SystemInitFromLPM35 (FR59xx_EXP)
               CSTACK = 00000000 ( 00000004 )

    *************************************************************************

  FILE NAME : C:\jenkins\workspace\MspExp430FR5969\mspexp430fr5869\imports\MSP-EXP430FR5969 Software Examples\Source\430BOOST-SHARP96_ULP_FRAM\IAR\Debug\Obj\rectangle.r43
    *************************************************************************

  FILE NAME : C:\jenkins\workspace\MspExp430FR5969\mspexp430fr5869\imports\MSP-EXP430FR5969 Software Examples\Source\430BOOST-SHARP96_ULP_FRAM\IAR\Debug\Obj\ref_a.r43
  PROGRAM MODULE, NAME : ref_a

  SEGMENTS IN THE MODULE
  ======================
<CODE> 1 (was CODE)
  Relative segment, address: E6E8 - E6F3 (0xc bytes), align: 1
  Segment part 16.
           ENTRY                   ADDRESS         REF BY
           =====                   =======         ======
           REF_A_setReferenceVoltage
                                   E6E8            ULP_takeADCReading (ULPMeter)
               CSTACK = 00000000 ( 00000004 )
    -------------------------------------------------------------------------
<CODE> 1 (was CODE)
  Relative segment, address: E7BE - E7C3 (0x6 bytes), align: 1
  Segment part 11.
           ENTRY                   ADDRESS         REF BY
           =====                   =======         ======
           REF_A_enableReferenceVoltage
                                   E7BE            ULP_takeADCReading (ULPMeter)
               CSTACK = 00000000 ( 00000004 )
    -------------------------------------------------------------------------
<CODE> 1 (was CODE)
  Relative segment, address: E79A - E79F (0x6 bytes), align: 1
  Segment part 10.
           ENTRY                   ADDRESS         REF BY
           =====                   =======         ======
           REF_A_disableReferenceVoltage
                                   E79A            ULP_stopADCReading (ULPMeter)
               CSTACK = 00000000 ( 00000004 )
    -------------------------------------------------------------------------
<CODE> 1 (was CODE)
  Relative segment, address: E782 - E789 (0x8 bytes), align: 1
  Segment part 7.
           ENTRY                   ADDRESS         REF BY
           =====                   =======         ======
           REF_A_isRefGenBusy      E782            ULP_stopADCReading (ULPMeter)
                                                   ULP_takeADCReading (ULPMeter)
               CSTACK = 00000000 ( 00000004 )

    *************************************************************************

  FILE NAME : C:\jenkins\workspace\MspExp430FR5969\mspexp430fr5869\imports\MSP-EXP430FR5969 Software Examples\Source\430BOOST-SHARP96_ULP_FRAM\IAR\Debug\Obj\rtc_b.r43
  PROGRAM MODULE, NAME : rtc_b

  SEGMENTS IN THE MODULE
  ======================
<CODE> 1 (was CODE)
  Relative segment, address: E75C - E765 (0xa bytes), align: 1
  Segment part 18.
           ENTRY                   ADDRESS         REF BY
           =====                   =======         ======
           RTC_B_startClock        E75C            PORT1_ISR (FR59xx_EXP)
                                                   SystemInitFromLPM35 (FR59xx_EXP)
                                                   ULP_setupRTC (ULPMeter)
                                                   onLED (FR59xx_EXP)
               CSTACK = 00000000 ( 00000004 )
    -------------------------------------------------------------------------
<CODE> 1 (was CODE)
  Relative segment, address: E766 - E76F (0xa bytes), align: 1
  Segment part 17.
           ENTRY                   ADDRESS         REF BY
           =====                   =======         ======
           RTC_B_holdClock         E766            Clock_App_exit (ClockApp)
                                                   Clock_App_init (ClockApp)
                                                   PORT1_ISR (FR59xx_EXP)
                                                   SystemInitFromLPM35 (FR59xx_EXP)
                                                   ULP_meter (ULPMeter)
                                                   ULP_setupRTC (ULPMeter)
                                                   offLED (FR59xx_EXP)
               CSTACK = 00000000 ( 00000004 )
    -------------------------------------------------------------------------
<CODE> 1 (was CODE)
  Relative segment, address: D8E2 - D951 (0x70 bytes), align: 1
  Segment part 14.
           ENTRY                   ADDRESS         REF BY
           =====                   =======         ======
           RTC_B_calendarInit      D8E2            Clock_App_init (ClockApp)
                                                   ULP_clearStopwatch (ULPMeter)
               CSTACK = 00000000 ( 00000006 )
    -------------------------------------------------------------------------
<CODE> 1 (was CODE)
  Relative segment, address: E6F4 - E6FF (0xc bytes), align: 1
  Segment part 11.
           ENTRY                   ADDRESS         REF BY
           =====                   =======         ======
           RTC_B_setCalendarEvent
                                   E6F4            SystemInitFromLPM35 (FR59xx_EXP)
                                                   ULP_setupRTC (ULPMeter)
               CSTACK = 00000000 ( 00000004 )
    -------------------------------------------------------------------------
<CODE> 1 (was CODE)
  Relative segment, address: E490 - E4AD (0x1e bytes), align: 1
  Segment part 10.
           ENTRY                   ADDRESS         REF BY
           =====                   =======         ======
           RTC_B_definePrescaleEvent
                                   E490            PORT1_ISR (FR59xx_EXP)
                                                   onLED (FR59xx_EXP)
               CSTACK = 00000000 ( 00000006 )
    -------------------------------------------------------------------------
<CODE> 1 (was CODE)
  Relative segment, address: E292 - E2BB (0x2a bytes), align: 1
  Segment part 7.
           ENTRY                   ADDRESS         REF BY
           =====                   =======         ======
           RTC_B_enableInterrupt   E292            PORT1_ISR (FR59xx_EXP)
                                                   SystemInitFromLPM35 (FR59xx_EXP)
                                                   ULP_setupRTC (ULPMeter)
                                                   onLED (FR59xx_EXP)
               CSTACK = 00000000 ( 00000004 )
    -------------------------------------------------------------------------
<CODE> 1 (was CODE)
  Relative segment, address: E2E6 - E30F (0x2a bytes), align: 1
  Segment part 6.
           ENTRY                   ADDRESS         REF BY
           =====                   =======         ======
           RTC_B_disableInterrupt
                                   E2E6            Clock_App_exit (ClockApp)
                                                   ULP_meter (ULPMeter)
                                                   offLED (FR59xx_EXP)
               CSTACK = 00000000 ( 00000004 )
    -------------------------------------------------------------------------
<CODE> 1 (was CODE)
  Relative segment, address: E2BC - E2E5 (0x2a bytes), align: 1
  Segment part 4.
           ENTRY                   ADDRESS         REF BY
           =====                   =======         ======
           RTC_B_clearInterrupt    E2BC            RTC_ISR (FR59xx_EXP)
               CSTACK = 00000000 ( 00000004 )

    *************************************************************************

  FILE NAME : C:\jenkins\workspace\MspExp430FR5969\mspexp430fr5869\imports\MSP-EXP430FR5969 Software Examples\Source\430BOOST-SHARP96_ULP_FRAM\IAR\Debug\Obj\sfr.r43
    *************************************************************************

  FILE NAME : C:\jenkins\workspace\MspExp430FR5969\mspexp430fr5869\imports\MSP-EXP430FR5969 Software Examples\Source\430BOOST-SHARP96_ULP_FRAM\IAR\Debug\Obj\sharp96x96.r43
  PROGRAM MODULE, NAME : sharp96x96

  SEGMENTS IN THE MODULE
  ======================
DATA16_AN
  Relative segment, address: 064E - 064F (0x2 bytes), align: 0
  Segment part 1. ROOT.       Intra module refs:   Sharp96x96_Flush
                                                   Sharp96x96_SendToggleVCOMCommand
           ENTRY                   ADDRESS         REF BY
           =====                   =======         ======
           _A_UCB0TXBUF_L          064E 
           LOCAL                   ADDRESS         
           =====                   =======         
           UCB0TXBUF               064E 
           UCB0TXBUF_H             064F 
           UCB0TXBUF_L             064E 
    -------------------------------------------------------------------------
DATA16_AN
  Relative segment, address: 066C - 066D (0x2 bytes), align: 0
  Segment part 2. ROOT.       Intra module refs:   Sharp96x96_Flush
                                                   Sharp96x96_SendToggleVCOMCommand
           ENTRY                   ADDRESS         REF BY
           =====                   =======         ======
           _A_UCB0IFG_L            066C 
           LOCAL                   ADDRESS         
           =====                   =======         
           UCB0IFG                 066C 
           UCB0IFG_H               066D 
           UCB0IFG_L               066C 
    -------------------------------------------------------------------------
DATA16_Z
  Relative segment, address: 1C4E - 1C65 (0x18 bytes), align: 1
  Segment part 4.
           ENTRY                   ADDRESS         REF BY
           =====                   =======         ======
           sContext                1C4E            LCD_activePowerIntro (UpdateDisplay)
                                                   LCD_displayCacheRatioMenu (UpdateDisplay)
                                                   LCD_displayFrequencyMenu (UpdateDisplay)
                                                   LCD_displayGameOver (UpdateDisplay)
                                                   LCD_displayMainMenu (UpdateDisplay)
                                                   LCD_displayNewHighScore (UpdateDisplay)
                                                   LCD_displaySendingScreen (UpdateDisplay)
                                                   LCD_displaySpeed (UpdateDisplay)
                                                   LCD_displayULPSubMenu (UpdateDisplay)
                                                   LCD_drawBattery (UpdateDisplay)
                                                   LCD_drawLowBattery (UpdateDisplay)
                                                   LCD_drawSliderBall (UpdateDisplay)
                                                   LCD_introULP (UpdateDisplay)
                                                   LCD_introWrite (UpdateDisplay)
                                                   LCD_showDataSent (UpdateDisplay)
                                                   LCD_sliderBallMenu (UpdateDisplay)
                                                   LCD_updateClock (UpdateDisplay)
                                                   LCD_updateLives (UpdateDisplay)
                                                   LCD_updateScore (UpdateDisplay)
                                                   SliderBall_app (Game)
                                                   SystemInit (FR59xx_EXP)
                                                   SystemInitFromLPM35 (FR59xx_EXP)
    -------------------------------------------------------------------------
DATA16_Z
  Relative segment, address: 1C7B - 20FA (0x480 bytes), align: 0
  Segment part 5.             Intra module refs:   Sharp96x96_DrawMultiple
                                                   Sharp96x96_Flush
                                                   Sharp96x96_InitializeDisplayBuffer
                                                   Sharp96x96_LineDrawH
                                                   Sharp96x96_LineDrawV
                                                   Sharp96x96_PixelDraw
                                                   Sharp96x96_RectFill
           ENTRY                   ADDRESS         REF BY
           =====                   =======         ======
           DisplayBuffer           1C7B            LCD_drawSliderBall (UpdateDisplay)
                                                   LCD_updateLives (UpdateDisplay)
                                                   LCD_updateScore (UpdateDisplay)
    -------------------------------------------------------------------------
DATA16_I
  Relative segment, address: 1C0E - 1C0E (0x1 bytes), align: 0
  Segment part 6.             Intra module refs:   Sharp96x96_Flush
                                                   Sharp96x96_SendToggleVCOMCommand
           ENTRY                   ADDRESS         REF BY
           =====                   =======         ======
           VCOMbit                 1C0E            LCD_drawPicture (UpdateDisplay)
    -------------------------------------------------------------------------
DATA16_Z
  Relative segment, address: 20FB - 20FB (0x1 bytes), align: 0
  Segment part 8.             Intra module refs:   Sharp96x96_Flush
                                                   Sharp96x96_SendToggleVCOMCommand
           ENTRY                   ADDRESS         REF BY
           =====                   =======         ======
           flagSendToggleVCOMCommand
                                   20FB 
    -------------------------------------------------------------------------
<CODE> 1 (was CODE)
  Relative segment, address: D952 - D9BF (0x6e bytes), align: 1
  Segment part 19.
           ENTRY                   ADDRESS         REF BY
           =====                   =======         ======
           Sharp96x96_LCDInit      D952            SystemInit (FR59xx_EXP)
                                                   ULP_meter (ULPMeter)
               calls direct
               CSTACK = 00000000 ( 00000012 )
    -------------------------------------------------------------------------
<CODE> 1 (was CODE)
  Relative segment, address: DDBC - DE0B (0x50 bytes), align: 1
  Segment part 18.            Intra module refs:   g_sharp96x96LCD
           LOCAL                   ADDRESS         
           =====                   =======         
           Sharp96x96_PixelDraw    DDBC 
               CSTACK = 00000000 ( 00000004 )
    -------------------------------------------------------------------------
<CODE> 1 (was CODE)
  Relative segment, address: DD6C - DDBB (0x50 bytes), align: 1
  Segment part 17.            Intra module refs:   g_sharp96x96LCD
           LOCAL                   ADDRESS         
           =====                   =======         
           Sharp96x96_DrawMultiple
                                   DD6C 
               CSTACK = 00000000 ( 00000006 )
    -------------------------------------------------------------------------
<CODE> 1 (was CODE)
  Relative segment, address: B980 - BA8B (0x10c bytes), align: 1
  Segment part 16.            Intra module refs:   g_sharp96x96LCD
           LOCAL                   ADDRESS         
           =====                   =======         
           Sharp96x96_LineDrawH    B980 
               CSTACK = 00000000 ( 0000000C )
    -------------------------------------------------------------------------
<CODE> 1 (was CODE)
  Relative segment, address: D7F6 - D86D (0x78 bytes), align: 1
  Segment part 15.            Intra module refs:   g_sharp96x96LCD
           LOCAL                   ADDRESS         
           =====                   =======         
           Sharp96x96_LineDrawV    D7F6 
               CSTACK = 00000000 ( 0000000C )
    -------------------------------------------------------------------------
<CODE> 1 (was CODE)
  Relative segment, address: B616 - B751 (0x13c bytes), align: 1
  Segment part 14.            Intra module refs:   g_sharp96x96LCD
           LOCAL                   ADDRESS         
           =====                   =======         
           Sharp96x96_RectFill     B616 
               CSTACK = 00000000 ( 00000010 )
    -------------------------------------------------------------------------
<CODE> 1 (was CODE)
  Relative segment, address: E792 - E799 (0x8 bytes), align: 1
  Segment part 13.            Intra module refs:   g_sharp96x96LCD
           LOCAL                   ADDRESS         
           =====                   =======         
           Sharp96x96_ColorTranslate
                                   E792 
               CSTACK = 00000000 ( 00000004 )
    -------------------------------------------------------------------------
<CODE> 1 (was CODE)
  Relative segment, address: E11E - E14F (0x32 bytes), align: 1
  Segment part 12.            Intra module refs:   g_sharp96x96LCD
           LOCAL                   ADDRESS         
           =====                   =======         
           Sharp96x96_InitializeDisplayBuffer
                                   E11E 
               CSTACK = 00000000 ( 00000006 )
    -------------------------------------------------------------------------
<CODE> 1 (was CODE)
  Relative segment, address: CAA2 - CB57 (0xb6 bytes), align: 1
  Segment part 11.            Intra module refs:   g_sharp96x96LCD
           LOCAL                   ADDRESS         
           =====                   =======         
           Sharp96x96_Flush        CAA2 
               calls direct
               CSTACK = 00000000 ( 00000010 )
    -------------------------------------------------------------------------
<CODE> 1 (was CODE)
  Relative segment, address: DD1C - DD6B (0x50 bytes), align: 1
  Segment part 10.
           ENTRY                   ADDRESS         REF BY
           =====                   =======         ======
           Sharp96x96_SendToggleVCOMCommand
                                   DD1C            TA0_ISR (myTimer)
               calls direct
               CSTACK = 00000000 ( 00000006 )
    -------------------------------------------------------------------------
DATA16_C
  Relative segment, address: 492E - 4957 (0x2a bytes), align: 1
  Segment part 9.
           ENTRY                   ADDRESS         REF BY
           =====                   =======         ======
           g_sharp96x96LCD         492E            SystemInit (FR59xx_EXP)
                                                   SystemInitFromLPM35 (FR59xx_EXP)
    -------------------------------------------------------------------------
DATA16_ID
  Relative segment, address: 698E - 698E (0x1 bytes), align: 0
  Segment part 7.             Intra module refs:   VCOMbit

    *************************************************************************

  FILE NAME : C:\jenkins\workspace\MspExp430FR5969\mspexp430fr5869\imports\MSP-EXP430FR5969 Software Examples\Source\430BOOST-SHARP96_ULP_FRAM\IAR\Debug\Obj\Sharp96x96utils.r43
  PROGRAM MODULE, NAME : Sharp96x96utils

  SEGMENTS IN THE MODULE
  ======================
<CODE> 1 (was CODE)
  Relative segment, address: E3A6 - E3C9 (0x24 bytes), align: 1
  Segment part 0. ROOT.
           ENTRY                   ADDRESS         REF BY
           =====                   =======         ======
           reverse                 E3A6            Sharp96x96_Flush (sharp96x96)

    *************************************************************************

  FILE NAME : C:\jenkins\workspace\MspExp430FR5969\mspexp430fr5869\imports\MSP-EXP430FR5969 Software Examples\Source\430BOOST-SHARP96_ULP_FRAM\IAR\Debug\Obj\string.r43
  PROGRAM MODULE, NAME : string

  SEGMENTS IN THE MODULE
  ======================
<CODE> 1 (was CODE)
  Relative segment, address: E048 - E07F (0x38 bytes), align: 1
  Segment part 4.             Intra module refs:   GrStringDraw
           ENTRY                   ADDRESS         REF BY
           =====                   =======         ======
           NumLeadingZeros         E048 
               CSTACK = 00000000 ( 0000000C )
    -------------------------------------------------------------------------
<CODE> 1 (was CODE)
  Relative segment, address: 71C8 - 79B1 (0x7ea bytes), align: 1
  Segment part 2.
           ENTRY                   ADDRESS         REF BY
           =====                   =======         ======
           GrStringDraw            71C8            LCD_activePowerIntro (UpdateDisplay)
                                                   LCD_displayCacheRatioMenu (UpdateDisplay)
                                                   LCD_displayFrequencyMenu (UpdateDisplay)
                                                   LCD_displayGameOver (UpdateDisplay)
                                                   LCD_displayMainMenu (UpdateDisplay)
                                                   LCD_displayNewHighScore (UpdateDisplay)
                                                   LCD_displaySendingScreen (UpdateDisplay)
                                                   LCD_displaySpeed (UpdateDisplay)
                                                   LCD_displayULPSubMenu (UpdateDisplay)
                                                   LCD_drawBattery (UpdateDisplay)
                                                   LCD_drawLowBattery (UpdateDisplay)
                                                   LCD_introULP (UpdateDisplay)
                                                   LCD_introWrite (UpdateDisplay)
                                                   LCD_showDataSent (UpdateDisplay)
                                                   LCD_sliderBallMenu (UpdateDisplay)
                                                   LCD_updateClock (UpdateDisplay)
                                                   LCD_updateLives (UpdateDisplay)
                                                   LCD_updateScore (UpdateDisplay)
               calls direct and indirect
               CSTACK = 00000000 ( 00000056 )

    *************************************************************************

  FILE NAME : C:\jenkins\workspace\MspExp430FR5969\mspexp430fr5869\imports\MSP-EXP430FR5969 Software Examples\Source\430BOOST-SHARP96_ULP_FRAM\IAR\Debug\Obj\structure.r43
  PROGRAM MODULE, NAME : structure

  SEGMENTS IN THE MODULE
  ======================
DATA16_AN
  Relative segment, address: 043E - 043F (0x2 bytes), align: 0
  Segment part 1. ROOT.       Intra module refs:   slider0
                                                   slider1
           ENTRY                   ADDRESS         REF BY
           =====                   =======         ======
           _A_CAPTIO0CTL_L         043E 
           LOCAL                   ADDRESS         
           =====                   =======         
           CAPTIO0CTL              043E 
           CAPTIO0CTL_H            043F 
           CAPTIO0CTL_L            043E 
    -------------------------------------------------------------------------
DATA16_C
  Relative segment, address: 4958 - 495D (0x6 bytes), align: 1
  Segment part 3.             Intra module refs:   slider0
           ENTRY                   ADDRESS         REF BY
           =====                   =======         ======
           upperLeft               4958 
    -------------------------------------------------------------------------
DATA16_C
  Relative segment, address: 495E - 4963 (0x6 bytes), align: 1
  Segment part 4.             Intra module refs:   slider0
           ENTRY                   ADDRESS         REF BY
           =====                   =======         ======
           lowerLeft               495E 
    -------------------------------------------------------------------------
DATA16_C
  Relative segment, address: 4964 - 4969 (0x6 bytes), align: 1
  Segment part 5.             Intra module refs:   slider0
           ENTRY                   ADDRESS         REF BY
           =====                   =======         ======
           splitLeft               4964 
    -------------------------------------------------------------------------
DATA16_C
  Relative segment, address: 496A - 496F (0x6 bytes), align: 1
  Segment part 6.             Intra module refs:   slider1
           ENTRY                   ADDRESS         REF BY
           =====                   =======         ======
           splitRight              496A 
    -------------------------------------------------------------------------
DATA16_C
  Relative segment, address: 4970 - 4975 (0x6 bytes), align: 1
  Segment part 7.             Intra module refs:   slider1
           ENTRY                   ADDRESS         REF BY
           =====                   =======         ======
           lowerRight              4970 
    -------------------------------------------------------------------------
DATA16_C
  Relative segment, address: 4976 - 497B (0x6 bytes), align: 1
  Segment part 8.             Intra module refs:   slider1
           ENTRY                   ADDRESS         REF BY
           =====                   =======         ======
           upperRight              4976 
    -------------------------------------------------------------------------
DATA16_C
  Relative segment, address: 497C - 498D (0x12 bytes), align: 1
  Segment part 9.
           ENTRY                   ADDRESS         REF BY
           =====                   =======         ======
           slider0                 497C            Segment part 7 (CTS_wolverine)
                                                   main (FR59xx_EXP)
    -------------------------------------------------------------------------
DATA16_C
  Relative segment, address: 498E - 499F (0x12 bytes), align: 1
  Segment part 10.
           ENTRY                   ADDRESS         REF BY
           =====                   =======         ======
           slider1                 498E            Segment part 7 (CTS_wolverine)
                                                   main (FR59xx_EXP)

    *************************************************************************

  FILE NAME : C:\jenkins\workspace\MspExp430FR5969\mspexp430fr5869\imports\MSP-EXP430FR5969 Software Examples\Source\430BOOST-SHARP96_ULP_FRAM\IAR\Debug\Obj\sys.r43
    *************************************************************************

  FILE NAME : C:\jenkins\workspace\MspExp430FR5969\mspexp430fr5869\imports\MSP-EXP430FR5969 Software Examples\Source\430BOOST-SHARP96_ULP_FRAM\IAR\Debug\Obj\timer_a.r43
  PROGRAM MODULE, NAME : timer_a

  SEGMENTS IN THE MODULE
  ======================
<CODE> 1 (was CODE)
  Relative segment, address: C042 - C12D (0xec bytes), align: 1
  Segment part 29.            Intra module refs:   TIMER_A_startUpMode
           LOCAL                   ADDRESS         
           =====                   =======         
           privateTimerAProcessClockSourceDivider
                                   C042 
               CSTACK = 00000000 ( 00000004 )
    -------------------------------------------------------------------------
<CODE> 1 (was CODE)
  Relative segment, address: DC74 - DCC7 (0x54 bytes), align: 1
  Segment part 22.
           ENTRY                   ADDRESS         REF BY
           =====                   =======         ======
           TIMER_A_startUpMode     DC74            FRAM_speedInit (FRAMSpeedApp)
                                                   TA0_enableVCOMToggle (myTimer)
                                                   TA1_sleep (myTimer)
               calls direct
               CSTACK = 00000000 ( 0000000C )
    -------------------------------------------------------------------------
<CODE> 1 (was CODE)
  Relative segment, address: E770 - E779 (0xa bytes), align: 1
  Segment part 14.
           ENTRY                   ADDRESS         REF BY
           =====                   =======         ======
           TIMER_A_disableCaptureCompareInterrupt
                                   E770            FRAM_speedExit (FRAMSpeedApp)
                                                   TA0_turnOff (myTimer)
                                                   TA1_ISR (myTimer)
                                                   TA1_turnOff (myTimer)
               CSTACK = 00000000 ( 00000004 )
    -------------------------------------------------------------------------
<CODE> 1 (was CODE)
  Relative segment, address: E7CA - E7CF (0x6 bytes), align: 1
  Segment part 12.
           ENTRY                   ADDRESS         REF BY
           =====                   =======         ======
           TIMER_A_clear           E7CA            FRAM_speedApp (FRAMSpeedApp)
               CSTACK = 00000000 ( 00000004 )
    -------------------------------------------------------------------------
<CODE> 1 (was CODE)
  Relative segment, address: E6DC - E6E7 (0xc bytes), align: 1
  Segment part 6.
           ENTRY                   ADDRESS         REF BY
           =====                   =======         ======
           TIMER_A_stop            E6DC            FRAM_speedExit (FRAMSpeedApp)
                                                   TA0_turnOff (myTimer)
                                                   TA1_ISR (myTimer)
                                                   TA1_turnOff (myTimer)
               CSTACK = 00000000 ( 00000004 )

    *************************************************************************

  FILE NAME : C:\jenkins\workspace\MspExp430FR5969\mspexp430fr5869\imports\MSP-EXP430FR5969 Software Examples\Source\430BOOST-SHARP96_ULP_FRAM\IAR\Debug\Obj\timer_b.r43
  PROGRAM MODULE, NAME : timer_b

  SEGMENTS IN THE MODULE
  ======================
<CODE> 1 (was CODE)
  Relative segment, address: C56E - C637 (0xca bytes), align: 1
  Segment part 32.            Intra module refs:   TIMER_B_startUpMode
           LOCAL                   ADDRESS         
           =====                   =======         
           privateTimerBProcessClockSourceDivider
                                   C56E 
               CSTACK = 00000000 ( 00000004 )
    -------------------------------------------------------------------------
<CODE> 1 (was CODE)
  Relative segment, address: DCC8 - DD1B (0x54 bytes), align: 1
  Segment part 25.
           ENTRY                   ADDRESS         REF BY
           =====                   =======         ======
           TIMER_B_startUpMode     DCC8            StartDebounceTimer (FR59xx_EXP)
               calls direct
               CSTACK = 00000000 ( 0000000C )
    -------------------------------------------------------------------------
<CODE> 1 (was CODE)
  Relative segment, address: E72A - E733 (0xa bytes), align: 1
  Segment part 17.
           ENTRY                   ADDRESS         REF BY
           =====                   =======         ======
           TIMER_B_disableCaptureCompareInterrupt
                                   E72A            TB0_ISR (FR59xx_EXP)
               CSTACK = 00000000 ( 00000004 )
    -------------------------------------------------------------------------
<CODE> 1 (was CODE)
  Relative segment, address: E700 - E70B (0xc bytes), align: 1
  Segment part 9.
           ENTRY                   ADDRESS         REF BY
           =====                   =======         ======
           TIMER_B_stop            E700            TB0_ISR (FR59xx_EXP)
               CSTACK = 00000000 ( 00000004 )

    *************************************************************************

  FILE NAME : C:\jenkins\workspace\MspExp430FR5969\mspexp430fr5869\imports\MSP-EXP430FR5969 Software Examples\Source\430BOOST-SHARP96_ULP_FRAM\IAR\Debug\Obj\tlv.r43
    *************************************************************************

  FILE NAME : C:\jenkins\workspace\MspExp430FR5969\mspexp430fr5869\imports\MSP-EXP430FR5969 Software Examples\Source\430BOOST-SHARP96_ULP_FRAM\IAR\Debug\Obj\ULPMeter.r43
  PROGRAM MODULE, NAME : ULPMeter

  SEGMENTS IN THE MODULE
  ======================
DATA16_AN
  Relative segment, address: 0860 - 0861 (0x2 bytes), align: 0
  Segment part 1. ROOT.       Intra module refs:   ADC12_ISR
           ENTRY                   ADDRESS         REF BY
           =====                   =======         ======
           _A_ADC12MEM0_L          0860 
           LOCAL                   ADDRESS         
           =====                   =======         
           ADC12MEM0               0860 
           ADC12MEM0_H             0861 
           ADC12MEM0_L             0860 
    -------------------------------------------------------------------------
DATA16_AN
  Relative segment, address: 05CE - 05CF (0x2 bytes), align: 0
  Segment part 2. ROOT.       Intra module refs:   ULP_sendData
           ENTRY                   ADDRESS         REF BY
           =====                   =======         ======
           _A_UCA0TXBUF_L          05CE 
           LOCAL                   ADDRESS         
           =====                   =======         
           UCA0TXBUF               05CE 
           UCA0TXBUF_H             05CF 
           UCA0TXBUF_L             05CE 
    -------------------------------------------------------------------------
DATA16_AN
  Relative segment, address: 05DC - 05DD (0x2 bytes), align: 0
  Segment part 3. ROOT.       Intra module refs:   ULP_sendData
           ENTRY                   ADDRESS         REF BY
           =====                   =======         ======
           _A_UCA0IFG_L            05DC 
           LOCAL                   ADDRESS         
           =====                   =======         
           UCA0IFG                 05DC 
           UCA0IFG_H               05DD 
           UCA0IFG_L               05DC 
    -------------------------------------------------------------------------
DATA16_Z
  Relative segment, address: 20FC - 20FC (0x1 bytes), align: 0
  Segment part 6.             Intra module refs:   ULP_meter
           ENTRY                   ADDRESS         REF BY
           =====                   =======         ======
           clearStopwatch          20FC 
    -------------------------------------------------------------------------
DATA16_Z
  Relative segment, address: 20FD - 20FD (0x1 bytes), align: 0
  Segment part 7.             Intra module refs:   ULP_meter
           ENTRY                   ADDRESS         REF BY
           =====                   =======         ======
           takeADCReading          20FD            RTC_ISR (FR59xx_EXP)
    -------------------------------------------------------------------------
DATA16_Z
  Relative segment, address: 1C66 - 1C67 (0x2 bytes), align: 1
  Segment part 8.             Intra module refs:   ADC12_ISR
                                                   ADC_calculateBars
                                                   ULP_meter
           ENTRY                   ADDRESS         REF BY
           =====                   =======         ======
           FRAM_write_ptr          1C66 
    -------------------------------------------------------------------------
DATA16_Z
  Relative segment, address: 1C68 - 1C69 (0x2 bytes), align: 1
  Segment part 9.             Intra module refs:   ULP_meter
                                                   ULP_sendData
           ENTRY                   ADDRESS         REF BY
           =====                   =======         ======
           FRAM_write_index        1C68 
    -------------------------------------------------------------------------
DATA16_Z
  Relative segment, address: 1C6A - 1C6B (0x2 bytes), align: 1
  Segment part 10.            Intra module refs:   ADC12_ISR
                                                   ULP_meter
                                                   ULP_takeADCReading
           ENTRY                   ADDRESS         REF BY
           =====                   =======         ======
           vRef_value              1C6A 
    -------------------------------------------------------------------------
<CODE> 1 (was CODE)
  Relative segment, address: A1B2 - A3D3 (0x222 bytes), align: 1
  Segment part 18.
           ENTRY                   ADDRESS         REF BY
           =====                   =======         ======
           ULP_meter               A1B2            main (FR59xx_EXP)
               calls direct
               CSTACK = 00000000 ( 00000004 )
    -------------------------------------------------------------------------
ISR_CODE
  Relative segment, address: 474C - 47A1 (0x56 bytes), align: 1
  Segment part 19.            Intra module refs:   ADC12_ISR::??INTVEC 92
           ENTRY                   ADDRESS         REF BY
           =====                   =======         ======
           ADC12_ISR               474C 
               interrupt function
               calls direct
               CSTACK = 00000000 ( 0000000C )
    -------------------------------------------------------------------------
<CODE> 1 (was CODE)
  Relative segment, address: E180 - E1AF (0x30 bytes), align: 1
  Segment part 17.            Intra module refs:   ULP_meter
           LOCAL                   ADDRESS         
           =====                   =======         
           ULP_subMenu             E180 
               calls direct
               CSTACK = 00000000 ( 00000006 )
    -------------------------------------------------------------------------
<CODE> 1 (was CODE)
  Relative segment, address: E20C - E239 (0x2e bytes), align: 1
  Segment part 16.            Intra module refs:   ADC12_ISR
                                                   ULP_meter
           LOCAL                   ADDRESS         
           =====                   =======         
           ULP_stopADCReading      E20C 
               calls direct
               CSTACK = 00000000 ( 00000004 )
    -------------------------------------------------------------------------
<CODE> 1 (was CODE)
  Relative segment, address: C87E - C935 (0xb8 bytes), align: 1
  Segment part 15.            Intra module refs:   ULP_meter
           LOCAL                   ADDRESS         
           =====                   =======         
           ULP_takeADCReading      C87E 
               calls direct
               CSTACK = 00000000 ( 00000016 )
    -------------------------------------------------------------------------
<CODE> 1 (was CODE)
  Relative segment, address: E1DE - E20B (0x2e bytes), align: 1
  Segment part 14.            Intra module refs:   ULP_meter
           LOCAL                   ADDRESS         
           =====                   =======         
           ULP_setupRTC            E1DE 
               calls direct
               CSTACK = 00000000 ( 00000004 )
    -------------------------------------------------------------------------
<CODE> 1 (was CODE)
  Relative segment, address: E1B0 - E1DD (0x2e bytes), align: 1
  Segment part 13.            Intra module refs:   ULP_meter
           LOCAL                   ADDRESS         
           =====                   =======         
           ULP_clearStopwatch      E1B0 
               calls direct
               CSTACK = 00000000 ( 00000014 )
    -------------------------------------------------------------------------
<CODE> 1 (was CODE)
  Relative segment, address: DB00 - DB63 (0x64 bytes), align: 1
  Segment part 12.            Intra module refs:   ULP_meter
           LOCAL                   ADDRESS         
           =====                   =======         
           ADC_calculateBars       DB00 
               CSTACK = 00000000 ( 00000004 )
    -------------------------------------------------------------------------
<CODE> 1 (was CODE)
  Relative segment, address: C2F0 - C3C7 (0xd8 bytes), align: 1
  Segment part 11.            Intra module refs:   ULP_meter
           LOCAL                   ADDRESS         
           =====                   =======         
           ULP_sendData            C2F0 
               calls direct
               CSTACK = 00000000 ( 00000014 )
    -------------------------------------------------------------------------
INTVEC
  Common segment, address: FF90 - FFED (0x5e bytes), align: 1
  Segment part 4. ROOT.
           ENTRY                   ADDRESS         REF BY
           =====                   =======         ======
           ADC12_ISR::??INTVEC 92
                                   FFEC 

    *************************************************************************

  FILE NAME : C:\jenkins\workspace\MspExp430FR5969\mspexp430fr5869\imports\MSP-EXP430FR5969 Software Examples\Source\430BOOST-SHARP96_ULP_FRAM\IAR\Debug\Obj\UpdateDisplay.r43
  PROGRAM MODULE, NAME : UpdateDisplay

  SEGMENTS IN THE MODULE
  ======================
DATA16_AN
  Relative segment, address: 0222 - 0223 (0x2 bytes), align: 0
  Segment part 1. ROOT.       Intra module refs:   LCD_display
                                                   LCD_turnOff
                                                   LCD_turnOn
           ENTRY                   ADDRESS         REF BY
           =====                   =======         ======
           _A_PBOUT_L              0222 
           LOCAL                   ADDRESS         
           =====                   =======         
           PBOUT                   0222 
           PBOUT_H                 0223 
           PBOUT_L                 0222 
    -------------------------------------------------------------------------
DATA16_C
  Relative segment, address: 5BFB - 5C04 (0xa bytes), align: 0
  Segment part 7.             Intra module refs:   LCD_introWrite
    -------------------------------------------------------------------------
DATA16_C
  Relative segment, address: 5C05 - 5C0C (0x8 bytes), align: 0
  Segment part 8.             Intra module refs:   LCD_introWrite
    -------------------------------------------------------------------------
DATA16_C
  Relative segment, address: 5C0D - 5C1C (0x10 bytes), align: 0
  Segment part 9.             Intra module refs:   LCD_introWrite
    -------------------------------------------------------------------------
DATA16_C
  Relative segment, address: 5C1D - 5C23 (0x7 bytes), align: 0
  Segment part 10.            Intra module refs:   LCD_introWrite
    -------------------------------------------------------------------------
DATA16_C
  Relative segment, address: 5C24 - 5C2E (0xb bytes), align: 0
  Segment part 11.            Intra module refs:   LCD_displayMainMenu
    -------------------------------------------------------------------------
DATA16_C
  Relative segment, address: 5C2F - 5C34 (0x6 bytes), align: 0
  Segment part 12.            Intra module refs:   LCD_displayMainMenu
    -------------------------------------------------------------------------
DATA16_C
  Relative segment, address: 5C35 - 5C3F (0xb bytes), align: 0
  Segment part 13.            Intra module refs:   LCD_displayMainMenu
    -------------------------------------------------------------------------
DATA16_C
  Relative segment, address: 5C40 - 5C4C (0xd bytes), align: 0
  Segment part 14.            Intra module refs:   LCD_displayMainMenu
    -------------------------------------------------------------------------
DATA16_C
  Relative segment, address: 5C4D - 5C58 (0xc bytes), align: 0
  Segment part 15.            Intra module refs:   LCD_displayMainMenu
    -------------------------------------------------------------------------
DATA16_C
  Relative segment, address: 5C59 - 5C68 (0x10 bytes), align: 0
  Segment part 16.            Intra module refs:   LCD_displayMainMenu
    -------------------------------------------------------------------------
DATA16_C
  Relative segment, address: 5C69 - 5C6E (0x6 bytes), align: 0
  Segment part 17.            Intra module refs:   LCD_displayMainMenu
    -------------------------------------------------------------------------
DATA16_C
  Relative segment, address: 5C6F - 5C7C (0xe bytes), align: 0
  Segment part 18.            Intra module refs:   LCD_displayULPSubMenu
    -------------------------------------------------------------------------
DATA16_C
  Relative segment, address: 5C7D - 5C84 (0x8 bytes), align: 0
  Segment part 19.            Intra module refs:   LCD_displayULPSubMenu
    -------------------------------------------------------------------------
DATA16_C
  Relative segment, address: 5C85 - 5C92 (0xe bytes), align: 0
  Segment part 20.            Intra module refs:   LCD_displayULPSubMenu
    -------------------------------------------------------------------------
DATA16_C
  Relative segment, address: 5C93 - 5CA5 (0x13 bytes), align: 0
  Segment part 21.            Intra module refs:   LCD_displayCacheRatioMenu
                                                   LCD_displayFrequencyMenu
                                                   LCD_displayULPSubMenu
                                                   LCD_sliderBallMenu
    -------------------------------------------------------------------------
DATA16_C
  Relative segment, address: 5CA6 - 5CB3 (0xe bytes), align: 0
  Segment part 22.            Intra module refs:   LCD_displayULPSubMenu
    -------------------------------------------------------------------------
DATA16_C
  Relative segment, address: 5CB4 - 5CBC (0x9 bytes), align: 0
  Segment part 23.            Intra module refs:   LCD_introULP
    -------------------------------------------------------------------------
DATA16_C
  Relative segment, address: 5CBD - 5CCC (0x10 bytes), align: 0
  Segment part 24.            Intra module refs:   LCD_introULP
    -------------------------------------------------------------------------
DATA16_C
  Relative segment, address: 5CCD - 5CDF (0x13 bytes), align: 0
  Segment part 25.            Intra module refs:   LCD_activePowerIntro
                                                   LCD_introULP
    -------------------------------------------------------------------------
DATA16_C
  Relative segment, address: 5CE0 - 5CED (0xe bytes), align: 0
  Segment part 26.            Intra module refs:   LCD_activePowerIntro
                                                   LCD_introULP
    -------------------------------------------------------------------------
DATA16_C
  Relative segment, address: 5CEE - 5CF4 (0x7 bytes), align: 0
  Segment part 27.            Intra module refs:   LCD_introULP
    -------------------------------------------------------------------------
DATA16_C
  Relative segment, address: 5CF5 - 5D05 (0x11 bytes), align: 0
  Segment part 29.            Intra module refs:   LCD_drawBattery
    -------------------------------------------------------------------------
DATA16_C
  Relative segment, address: 5D06 - 5D06 (0x1 bytes), align: 0
  Segment part 30.            Intra module refs:   LCD_displayGameOver
                                                   LCD_displayNewHighScore
                                                   LCD_drawBattery
                                                   LCD_updateClock
    -------------------------------------------------------------------------
DATA16_C
  Relative segment, address: 5D07 - 5D08 (0x2 bytes), align: 0
  Segment part 31.            Intra module refs:   LCD_drawBattery
                                                   LCD_updateClock
    -------------------------------------------------------------------------
DATA16_C
  Relative segment, address: 5D09 - 5D14 (0xc bytes), align: 0
  Segment part 32.            Intra module refs:   LCD_drawLowBattery
    -------------------------------------------------------------------------
DATA16_C
  Relative segment, address: 5D15 - 5D22 (0xe bytes), align: 0
  Segment part 33.            Intra module refs:   LCD_drawLowBattery
    -------------------------------------------------------------------------
DATA16_C
  Relative segment, address: 5D23 - 5D27 (0x5 bytes), align: 0
  Segment part 34.            Intra module refs:   LCD_drawLowBattery
    -------------------------------------------------------------------------
DATA16_C
  Relative segment, address: 5D28 - 5D34 (0xd bytes), align: 0
  Segment part 35.            Intra module refs:   LCD_displaySendingScreen
    -------------------------------------------------------------------------
DATA16_C
  Relative segment, address: 5D35 - 5D40 (0xc bytes), align: 0
  Segment part 36.            Intra module refs:   LCD_displaySendingScreen
    -------------------------------------------------------------------------
DATA16_C
  Relative segment, address: 5D41 - 5D4A (0xa bytes), align: 0
  Segment part 38.            Intra module refs:   LCD_showDataSent
    -------------------------------------------------------------------------
DATA16_C
  Relative segment, address: 5D4B - 5D53 (0x9 bytes), align: 0
  Segment part 39.            Intra module refs:   LCD_showDataSent
    -------------------------------------------------------------------------
DATA16_C
  Relative segment, address: 5D54 - 5D59 (0x6 bytes), align: 0
  Segment part 40.            Intra module refs:   LCD_showDataSent
    -------------------------------------------------------------------------
DATA16_C
  Relative segment, address: 5D5A - 5D5F (0x6 bytes), align: 0
  Segment part 44.            Intra module refs:   LCD_displaySpeed
    -------------------------------------------------------------------------
DATA16_C
  Relative segment, address: 5D60 - 5D63 (0x4 bytes), align: 0
  Segment part 45.            Intra module refs:   LCD_displaySpeed
    -------------------------------------------------------------------------
DATA16_C
  Relative segment, address: 5D64 - 5D68 (0x5 bytes), align: 0
  Segment part 46.            Intra module refs:   LCD_displaySpeed
    -------------------------------------------------------------------------
DATA16_C
  Relative segment, address: 5D69 - 5D6A (0x2 bytes), align: 0
  Segment part 47.            Intra module refs:   LCD_displaySpeed
    -------------------------------------------------------------------------
DATA16_C
  Relative segment, address: 5D6B - 5D77 (0xd bytes), align: 0
  Segment part 48.            Intra module refs:   LCD_displaySpeed
    -------------------------------------------------------------------------
DATA16_C
  Relative segment, address: 5D78 - 5D89 (0x12 bytes), align: 0
  Segment part 49.            Intra module refs:   LCD_displaySpeed
    -------------------------------------------------------------------------
DATA16_C
  Relative segment, address: 5D8A - 5D99 (0x10 bytes), align: 0
  Segment part 50.            Intra module refs:   LCD_displaySpeed
    -------------------------------------------------------------------------
DATA16_C
  Relative segment, address: 5D9A - 5DA0 (0x7 bytes), align: 0
  Segment part 53.            Intra module refs:   LCD_updateClock
    -------------------------------------------------------------------------
DATA16_C
  Relative segment, address: 5DA1 - 5DA7 (0x7 bytes), align: 0
  Segment part 54.            Intra module refs:   LCD_updateClock
    -------------------------------------------------------------------------
DATA16_C
  Relative segment, address: 5DA8 - 5DAF (0x8 bytes), align: 0
  Segment part 55.            Intra module refs:   LCD_updateClock
    -------------------------------------------------------------------------
DATA16_C
  Relative segment, address: 5DB0 - 5DB9 (0xa bytes), align: 0
  Segment part 56.            Intra module refs:   LCD_updateClock
    -------------------------------------------------------------------------
DATA16_C
  Relative segment, address: 5DBA - 5DC2 (0x9 bytes), align: 0
  Segment part 57.            Intra module refs:   LCD_updateClock
    -------------------------------------------------------------------------
DATA16_C
  Relative segment, address: 5DC3 - 5DC9 (0x7 bytes), align: 0
  Segment part 58.            Intra module refs:   LCD_updateClock
    -------------------------------------------------------------------------
DATA16_C
  Relative segment, address: 5DCA - 5DD2 (0x9 bytes), align: 0
  Segment part 59.            Intra module refs:   LCD_updateClock
    -------------------------------------------------------------------------
DATA16_C
  Relative segment, address: 5DD3 - 5DD4 (0x2 bytes), align: 0
  Segment part 60.            Intra module refs:   LCD_updateClock
    -------------------------------------------------------------------------
DATA16_C
  Relative segment, address: 5DD5 - 5DE7 (0x13 bytes), align: 0
  Segment part 61.            Intra module refs:   LCD_updateClock
    -------------------------------------------------------------------------
DATA16_C
  Relative segment, address: 5DE8 - 5DF9 (0x12 bytes), align: 0
  Segment part 62.            Intra module refs:   LCD_updateClock
    -------------------------------------------------------------------------
DATA16_C
  Relative segment, address: 5DFA - 5E0B (0x12 bytes), align: 0
  Segment part 63.            Intra module refs:   LCD_updateClock
    -------------------------------------------------------------------------
DATA16_C
  Relative segment, address: 5E0C - 5E1D (0x12 bytes), align: 0
  Segment part 64.            Intra module refs:   LCD_displayFrequencyMenu
    -------------------------------------------------------------------------
DATA16_C
  Relative segment, address: 5E1E - 5E23 (0x6 bytes), align: 0
  Segment part 65.            Intra module refs:   LCD_displayFrequencyMenu
    -------------------------------------------------------------------------
DATA16_C
  Relative segment, address: 5E24 - 5E2C (0x9 bytes), align: 0
  Segment part 66.            Intra module refs:   LCD_displayFrequencyMenu
    -------------------------------------------------------------------------
DATA16_C
  Relative segment, address: 5E2D - 5E32 (0x6 bytes), align: 0
  Segment part 67.            Intra module refs:   LCD_displayFrequencyMenu
    -------------------------------------------------------------------------
DATA16_C
  Relative segment, address: 5E33 - 5E38 (0x6 bytes), align: 0
  Segment part 68.            Intra module refs:   LCD_displayFrequencyMenu
    -------------------------------------------------------------------------
DATA16_C
  Relative segment, address: 5E39 - 5E4A (0x12 bytes), align: 0
  Segment part 69.            Intra module refs:   LCD_displayCacheRatioMenu
    -------------------------------------------------------------------------
DATA16_C
  Relative segment, address: 5E4B - 5E4E (0x4 bytes), align: 0
  Segment part 70.            Intra module refs:   LCD_displayCacheRatioMenu
    -------------------------------------------------------------------------
DATA16_C
  Relative segment, address: 5E4F - 5E52 (0x4 bytes), align: 0
  Segment part 71.            Intra module refs:   LCD_displayCacheRatioMenu
    -------------------------------------------------------------------------
DATA16_C
  Relative segment, address: 5E53 - 5E56 (0x4 bytes), align: 0
  Segment part 72.            Intra module refs:   LCD_displayCacheRatioMenu
    -------------------------------------------------------------------------
DATA16_C
  Relative segment, address: 5E57 - 5E5B (0x5 bytes), align: 0
  Segment part 73.            Intra module refs:   LCD_displayCacheRatioMenu
    -------------------------------------------------------------------------
DATA16_C
  Relative segment, address: 5E5C - 5E6D (0x12 bytes), align: 0
  Segment part 74.            Intra module refs:   LCD_activePowerIntro
    -------------------------------------------------------------------------
DATA16_C
  Relative segment, address: 5E6E - 5E7C (0xf bytes), align: 0
  Segment part 75.            Intra module refs:   LCD_activePowerIntro
    -------------------------------------------------------------------------
DATA16_C
  Relative segment, address: 5E7D - 5E8F (0x13 bytes), align: 0
  Segment part 76.            Intra module refs:   LCD_sliderBallMenu
    -------------------------------------------------------------------------
DATA16_C
  Relative segment, address: 5E90 - 5E94 (0x5 bytes), align: 0
  Segment part 77.            Intra module refs:   LCD_sliderBallMenu
    -------------------------------------------------------------------------
DATA16_C
  Relative segment, address: 5E95 - 5E9B (0x7 bytes), align: 0
  Segment part 78.            Intra module refs:   LCD_sliderBallMenu
    -------------------------------------------------------------------------
DATA16_C
  Relative segment, address: 5E9C - 5EA0 (0x5 bytes), align: 0
  Segment part 79.            Intra module refs:   LCD_sliderBallMenu
    -------------------------------------------------------------------------
DATA16_C
  Relative segment, address: 5EA1 - 5EA7 (0x7 bytes), align: 0
  Segment part 80.            Intra module refs:   LCD_sliderBallMenu
    -------------------------------------------------------------------------
DATA16_C
  Relative segment, address: 5EA8 - 5EAF (0x8 bytes), align: 0
  Segment part 82.            Intra module refs:   LCD_updateLives
    -------------------------------------------------------------------------
DATA16_C
  Relative segment, address: 5EB0 - 5EB7 (0x8 bytes), align: 0
  Segment part 84.            Intra module refs:   LCD_updateScore
    -------------------------------------------------------------------------
DATA16_C
  Relative segment, address: 5EB8 - 5EC2 (0xb bytes), align: 0
  Segment part 86.            Intra module refs:   LCD_displayGameOver
    -------------------------------------------------------------------------
DATA16_C
  Relative segment, address: 5EC3 - 5ED0 (0xe bytes), align: 0
  Segment part 87.            Intra module refs:   LCD_displayGameOver
    -------------------------------------------------------------------------
DATA16_C
  Relative segment, address: 5ED1 - 5EDD (0xd bytes), align: 0
  Segment part 88.            Intra module refs:   LCD_displayGameOver
    -------------------------------------------------------------------------
DATA16_C
  Relative segment, address: 5EDE - 5EEE (0x11 bytes), align: 0
  Segment part 90.            Intra module refs:   LCD_displayNewHighScore
    -------------------------------------------------------------------------
DATA16_C
  Relative segment, address: 5EEF - 5EFE (0x10 bytes), align: 0
  Segment part 91.            Intra module refs:   LCD_displayNewHighScore
    -------------------------------------------------------------------------
DATA16_C
  Relative segment, address: 5EFF - 643E (0x540 bytes), align: 0
  Segment part 94.            Intra module refs:   LCD_drawPicture
           ENTRY                   ADDRESS         REF BY
           =====                   =======         ======
           logoTI                  5EFF 
    -------------------------------------------------------------------------
DATA16_C
  Relative segment, address: 643F - 697E (0x540 bytes), align: 0
  Segment part 95.            Intra module refs:   LCD_drawPicture
           ENTRY                   ADDRESS         REF BY
           =====                   =======         ======
           logoWolverine           643F 
    -------------------------------------------------------------------------
<CODE> 1 (was CODE)
  Relative segment, address: E7A6 - E7AB (0x6 bytes), align: 1
  Segment part 120.
           ENTRY                   ADDRESS         REF BY
           =====                   =======         ======
           LCD_turnOn              E7A6            ActivePowerApp (ActivePowerMeasure)
               CSTACK = 00000000 ( 00000004 )
    -------------------------------------------------------------------------
<CODE> 1 (was CODE)
  Relative segment, address: E7B8 - E7BD (0x6 bytes), align: 1
  Segment part 119.
           ENTRY                   ADDRESS         REF BY
           =====                   =======         ======
           LCD_display             E7B8            ActivePowerApp (ActivePowerMeasure)
                                                   MainMenu (FR59xx_EXP)
                                                   ULP_subMenu (ULPMeter)
                                                   chooseFrequency (ActivePowerMeasure)
               CSTACK = 00000000 ( 00000004 )
    -------------------------------------------------------------------------
<CODE> 1 (was CODE)
  Relative segment, address: E5DA - E5EB (0x12 bytes), align: 1
  Segment part 118.
           ENTRY                   ADDRESS         REF BY
           =====                   =======         ======
           LCD_turnOff             E5DA            ActivePowerApp (ActivePowerMeasure)
                                                   ULP_meter (ULPMeter)
               CSTACK = 00000000 ( 00000004 )
    -------------------------------------------------------------------------
<CODE> 1 (was CODE)
  Relative segment, address: C638 - C6FF (0xc8 bytes), align: 1
  Segment part 117.
           ENTRY                   ADDRESS         REF BY
           =====                   =======         ======
           LCD_introWrite          C638            main (FR59xx_EXP)
               calls direct and indirect
               CSTACK = 00000000 ( 00000034 )
    -------------------------------------------------------------------------
<CODE> 1 (was CODE)
  Relative segment, address: 95EA - 9855 (0x26c bytes), align: 1
  Segment part 116.
           ENTRY                   ADDRESS         REF BY
           =====                   =======         ======
           LCD_displayMainMenu     95EA            MainMenu (FR59xx_EXP)
               calls direct and indirect
               CSTACK = 00000000 ( 00000080 )
    -------------------------------------------------------------------------
<CODE> 1 (was CODE)
  Relative segment, address: A7E6 - A9D5 (0x1f0 bytes), align: 1
  Segment part 115.
           ENTRY                   ADDRESS         REF BY
           =====                   =======         ======
           LCD_displayULPSubMenu   A7E6            ULP_subMenu (ULPMeter)
               calls direct and indirect
               CSTACK = 00000000 ( 00000060 )
    -------------------------------------------------------------------------
<CODE> 1 (was CODE)
  Relative segment, address: C12E - C211 (0xe4 bytes), align: 1
  Segment part 114.
           ENTRY                   ADDRESS         REF BY
           =====                   =======         ======
           LCD_introULP            C12E            ULP_meter (ULPMeter)
               calls direct and indirect
               CSTACK = 00000000 ( 00000040 )
    -------------------------------------------------------------------------
<CODE> 1 (was CODE)
  Relative segment, address: 898A - 8D11 (0x388 bytes), align: 1
  Segment part 113.
           ENTRY                   ADDRESS         REF BY
           =====                   =======         ======
           LCD_drawBattery         898A            ULP_meter (ULPMeter)
               calls direct and indirect
               CSTACK = 00000000 ( 00000056 )
    -------------------------------------------------------------------------
<CODE> 1 (was CODE)
  Relative segment, address: 9012 - 9305 (0x2f4 bytes), align: 1
  Segment part 112.
           ENTRY                   ADDRESS         REF BY
           =====                   =======         ======
           LCD_drawLowBattery      9012            ULP_meter (ULPMeter)
               calls direct and indirect
               CSTACK = 00000000 ( 00000024 )
    -------------------------------------------------------------------------
<CODE> 1 (was CODE)
  Relative segment, address: CC0E - CCC3 (0xb6 bytes), align: 1
  Segment part 111.
           ENTRY                   ADDRESS         REF BY
           =====                   =======         ======
           LCD_displaySendingScreen
                                   CC0E            ULP_meter (ULPMeter)
               calls direct and indirect
               CSTACK = 00000000 ( 00000022 )
    -------------------------------------------------------------------------
<CODE> 1 (was CODE)
  Relative segment, address: B752 - B873 (0x122 bytes), align: 1
  Segment part 110.
           ENTRY                   ADDRESS         REF BY
           =====                   =======         ======
           LCD_showDataSent        B752            ULP_meter (ULPMeter)
               calls direct and indirect
               CSTACK = 00000000 ( 00000046 )
    -------------------------------------------------------------------------
<CODE> 1 (was CODE)
  Relative segment, address: A5F4 - A7E5 (0x1f2 bytes), align: 1
  Segment part 109.
           ENTRY                   ADDRESS         REF BY
           =====                   =======         ======
           LCD_displaySpeed        A5F4            FRAM_speedApp (FRAMSpeedApp)
               calls direct and indirect
               CSTACK = 00000000 ( 000000AE )
    -------------------------------------------------------------------------
<CODE> 1 (was CODE)
  Relative segment, address: 6990 - 71C7 (0x838 bytes), align: 1
  Segment part 108.
           ENTRY                   ADDRESS         REF BY
           =====                   =======         ======
           LCD_updateClock         6990            Clock_App (ClockApp)
                                                   Clock_setParameter (ClockApp)
                                                   Clock_setYear (ClockApp)
               calls direct and indirect
               CSTACK = 00000000 ( 00000060 )
    -------------------------------------------------------------------------
<CODE> 1 (was CODE)
  Relative segment, address: 9856 - 9AB3 (0x25e bytes), align: 1
  Segment part 107.
           ENTRY                   ADDRESS         REF BY
           =====                   =======         ======
           LCD_displayFrequencyMenu
                                   9856            chooseFrequency (ActivePowerMeasure)
               calls direct and indirect
               CSTACK = 00000000 ( 00000078 )
    -------------------------------------------------------------------------
<CODE> 1 (was CODE)
  Relative segment, address: 9AB4 - 9D11 (0x25e bytes), align: 1
  Segment part 106.
           ENTRY                   ADDRESS         REF BY
           =====                   =======         ======
           LCD_displayCacheRatioMenu
                                   9AB4            chooseCacheRatio (ActivePowerMeasure)
               calls direct and indirect
               CSTACK = 00000000 ( 00000078 )
    -------------------------------------------------------------------------
<CODE> 1 (was CODE)
  Relative segment, address: C700 - C7C3 (0xc4 bytes), align: 1
  Segment part 105.
           ENTRY                   ADDRESS         REF BY
           =====                   =======         ======
           LCD_activePowerIntro    C700            Active_intro (ActivePowerMeasure)
               calls direct and indirect
               CSTACK = 00000000 ( 00000034 )
    -------------------------------------------------------------------------
<CODE> 1 (was CODE)
  Relative segment, address: 9D12 - 9F6F (0x25e bytes), align: 1
  Segment part 104.
           ENTRY                   ADDRESS         REF BY
           =====                   =======         ======
           LCD_sliderBallMenu      9D12            chooseGameMode (Game)
               calls direct and indirect
               CSTACK = 00000000 ( 00000078 )
    -------------------------------------------------------------------------
<CODE> 1 (was CODE)
  Relative segment, address: B874 - B97F (0x10c bytes), align: 1
  Segment part 103.
           ENTRY                   ADDRESS         REF BY
           =====                   =======         ======
           LCD_drawSliderBall      B874            SliderBall_app (Game)
               calls direct and indirect
               CSTACK = 00000000 ( 00000028 )
    -------------------------------------------------------------------------
<CODE> 1 (was CODE)
  Relative segment, address: D022 - D0C9 (0xa8 bytes), align: 1
  Segment part 102.
           ENTRY                   ADDRESS         REF BY
           =====                   =======         ======
           LCD_updateLives         D022            SliderBall_app (Game)
               calls direct and indirect
               CSTACK = 00000000 ( 0000003C )
    -------------------------------------------------------------------------
<CODE> 1 (was CODE)
  Relative segment, address: CE24 - CECF (0xac bytes), align: 1
  Segment part 101.
           ENTRY                   ADDRESS         REF BY
           =====                   =======         ======
           LCD_updateScore         CE24            SliderBall_app (Game)
                                                   collisionDetect (Game)
               calls direct and indirect
               CSTACK = 00000000 ( 0000003C )
    -------------------------------------------------------------------------
<CODE> 1 (was CODE)
  Relative segment, address: B4A6 - B615 (0x170 bytes), align: 1
  Segment part 100.
           ENTRY                   ADDRESS         REF BY
           =====                   =======         ======
           LCD_displayGameOver     B4A6            SliderBall_app (Game)
               calls direct and indirect
               CSTACK = 00000000 ( 0000006C )
    -------------------------------------------------------------------------
<CODE> 1 (was CODE)
  Relative segment, address: BB90 - BC89 (0xfa bytes), align: 1
  Segment part 99.
           ENTRY                   ADDRESS         REF BY
           =====                   =======         ======
           LCD_displayNewHighScore
                                   BB90            SliderBall_app (Game)
               calls direct and indirect
               CSTACK = 00000000 ( 00000054 )
    -------------------------------------------------------------------------
<CODE> 1 (was CODE)
  Relative segment, address: CF7A - D021 (0xa8 bytes), align: 1
  Segment part 98.
           ENTRY                   ADDRESS         REF BY
           =====                   =======         ======
           LCD_drawPicture         CF7A            main (FR59xx_EXP)
               calls direct
               CSTACK = 00000000 ( 00000008 )
    -------------------------------------------------------------------------
<CODE> 1 (was CODE)
  Relative segment, address: D9C0 - DA2B (0x6c bytes), align: 1
  Segment part 97.            Intra module refs:   LCD_displayGameOver
                                                   LCD_displayNewHighScore
                                                   LCD_drawBattery
                                                   LCD_showDataSent
                                                   LCD_updateClock
                                                   LCD_updateLives
                                                   LCD_updateScore
           ENTRY                   ADDRESS         REF BY
           =====                   =======         ======
           UnsignedInt_To_ASCII    D9C0 
               CSTACK = 00000000 ( 00000012 )
    -------------------------------------------------------------------------
<CODE> 1 (was CODE)
  Relative segment, address: D60E - D687 (0x7a bytes), align: 1
  Segment part 96.            Intra module refs:   LCD_displaySpeed
           ENTRY                   ADDRESS         REF BY
           =====                   =======         ======
           UnsignedLong_To_ASCII   D60E 
               CSTACK = 00000000 ( 00000016 )

    *************************************************************************

  FILE NAME : C:\jenkins\workspace\MspExp430FR5969\mspexp430fr5869\imports\MSP-EXP430FR5969 Software Examples\Source\430BOOST-SHARP96_ULP_FRAM\IAR\Debug\Obj\wdt_a.r43
    *************************************************************************

  FILE NAME : C:\iar\EW430V5.60\430\LIB\DLIB\dl430xsfn.r43
  LIBRARY MODULE, NAME : ?__dbg_break

  SEGMENTS IN THE MODULE
  ======================
<CODE> 1 (was CODE)
  Relative segment, address: E7F2 - E7F3 (0x2 bytes), align: 1
  Segment part 2.
           ENTRY                   ADDRESS         REF BY
           =====                   =======         ======
           __DebugBreak            E7F2            __exit (?__exit)

    -------------------------------------------------------------------------
  LIBRARY MODULE, NAME : ?__exit

  SEGMENTS IN THE MODULE
  ======================
<CODE> 1 (was CODE)
  Relative segment, address: E532 - E549 (0x18 bytes), align: 1
  Segment part 2.
           ENTRY                   ADDRESS         REF BY
           =====                   =======         ======
           __exit                  E532            Segment part 6 (?_exit)
                                                   _exit (?_exit)
               calls direct

    -------------------------------------------------------------------------
  LIBRARY MODULE, NAME : ?_exit

  SEGMENTS IN THE MODULE
  ======================
<CODE> 1 (was CODE)
  Relative segment, address: E7EA, align: 1
  Segment part 0.
           ENTRY                   ADDRESS         REF BY
           =====                   =======         ======
           _exit                   E7EA            exit (?exit)
    -------------------------------------------------------------------------
<CODE> 1 (was CODE)
  Relative segment, address: E7EA - E7ED (0x4 bytes), align: 1
  Segment part 6.             Intra module refs:   _exit

    -------------------------------------------------------------------------
  LIBRARY MODULE, NAME : ?cstart

  SEGMENTS IN THE MODULE
  ======================
CSTACK
  Relative segment, address: 2360, align: 1
  Segment part 1.
    -------------------------------------------------------------------------
DATA16_Z
  Relative segment, address: 1C6C, align: 1
  Segment part 2.
    -------------------------------------------------------------------------
DATA16_I
  Relative segment, address: 1C06, align: 1
  Segment part 3.
    -------------------------------------------------------------------------
DATA16_ID
  Relative segment, address: 6986, align: 1
  Segment part 4.
    -------------------------------------------------------------------------
CSTART
  Relative segment, address: 4400 - 4403 (0x4 bytes), align: 1
  Segment part 12.
           ENTRY                   ADDRESS         REF BY
           =====                   =======         ======
           __program_start         4400            ?reset_vector (?reset_vector)
                                                   Absolute parts (?ABS_ENTRY_MOD)
           ?cstart_begin           4400 
    -------------------------------------------------------------------------
CSTART
  Relative segment, address: 4404 - 440B (0x8 bytes), align: 1
  Segment part 13.
           ENTRY                   ADDRESS         REF BY
           =====                   =======         ======
           ?cstart_call_low_level_init
                                   4404            __low_level_init (low_level_init)
    -------------------------------------------------------------------------
CSTART
  Relative segment, address: 440C - 4417 (0xc bytes), align: 1
  Segment part 15.
           ENTRY                   ADDRESS         REF BY
           =====                   =======         ======
           ?cstart_init_zero       440C            CS_HFXTClockFrequency (cs)
                                                   CS_LFXTClockFrequency (cs)
                                                   DisplayBuffer (sharp96x96)
                                                   FRAM_write_index (ULPMeter)
                                                   FRAM_write_ptr (ULPMeter)
                                                   ULP (ClockApp)
                                                   arrayFill (CTS_wolverine)
                                                   baseCnt (CTS_Layer)
                                                   cacheRatioChoice (ActivePowerMeasure)
                                                   clearStopwatch (ULPMeter)
                                                   count (FRAMSpeedApp)
                                                   data (FRAMSpeedApp)
                                                   dx (Game)
                                                   dy (Game)
                                                   flagSendToggleVCOMCommand (sharp96x96)
                                                   frequencyChoice (ActivePowerMeasure)
                                                   gameMode (Game)
                                                   gameSpeedX (Game)
                                                   gameSpeedY (Game)
                                                   kBytes (FRAMSpeedApp)
                                                   lives (Game)
                                                   measCnt (CTS_Layer)
                                                   missed (Game)
                                                   oldSliderPos (CTS_wolverine)
                                                   sContext (sharp96x96)
                                                   score (Game)
                                                   scoreMultiplier (Game)
                                                   select (FR59xx_EXP)
                                                   sliderArray (CTS_wolverine)
                                                   sliderPos (CTS_wolverine)
                                                   startupStatus (FR59xx_EXP)
                                                   takeADCReading (ULPMeter)
                                                   timerA3InterruptCounter (FRAMSpeedApp)
                                                   totKB (FRAMSpeedApp)
                                                   vRef_value (ULPMeter)
                                                   x (Game)
                                                   y (Game)
    -------------------------------------------------------------------------
CSTART
  Relative segment, address: 4418 - 4427 (0x10 bytes), align: 1
  Segment part 16.
           ENTRY                   ADDRESS         REF BY
           =====                   =======         ======
           ?cstart_init_copy       4418            MAX_X (Game)
                                                   MAX_Y (Game)
                                                   MIN_X (Game)
                                                   MIN_Y (Game)
                                                   VCOMbit (sharp96x96)
                                                   ctsStatusReg (CTS_Layer)
                                                   firstEnter (ClockApp)
                                                   freshFlag (ClockApp)
                                                   mode (FR59xx_EXP)
                                                   setClock (ClockApp)
                                                   sliderPtr (CTS_wolverine)
    -------------------------------------------------------------------------
CSTART
  Relative segment, address: 4428 - 442F (0x8 bytes), align: 1
  Segment part 22.            Intra module refs:   ?cstart_call_low_level_init
                                                   Segment part 12
           ENTRY                   ADDRESS         REF BY
           =====                   =======         ======
           ?cstart_call_main       4428 
           ?cstart_end             4430 

    -------------------------------------------------------------------------
  LIBRARY MODULE, NAME : ?reset_vector

  SEGMENTS IN THE MODULE
  ======================
RESET
  Relative segment, address: FFFE - FFFF (0x2 bytes), align: 1
  Segment part 0.
           ENTRY                   ADDRESS         REF BY
           =====                   =======         ======
           ?reset_vector           FFFE            Segment part 12 (?cstart)

    -------------------------------------------------------------------------
  LIBRARY MODULE, NAME : ?exit

  SEGMENTS IN THE MODULE
  ======================
<CODE> 1 (was CODE)
  Relative segment, address: E7E6 - E7E9 (0x4 bytes), align: 1
  Segment part 2.
           ENTRY                   ADDRESS         REF BY
           =====                   =======         ======
           exit                    E7E6            Segment part 22 (?cstart)
               calls direct
               CSTACK = 00000000 ( 00000004 )

    -------------------------------------------------------------------------
  LIBRARY MODULE, NAME : ?Mul32Hw32Loc2

  SEGMENTS IN THE MODULE
  ======================
<CODE> 1 (was CODE)
  Relative segment, address: E410 - E431 (0x22 bytes), align: 1
  Segment part 0.
           ENTRY                   ADDRESS         REF BY
           =====                   =======         ======
           ?Mul32Hw32Loc2          E410            GrCircleDraw (circle)
                                                   GrLineClip (line)

    -------------------------------------------------------------------------
  LIBRARY MODULE, NAME : ?DivMod816u

  SEGMENTS IN THE MODULE
  ======================
<CODE> 1 (was CODE)
  Relative segment, address: E4CC - E4E7 (0x1c bytes), align: 1
  Segment part 0.
           ENTRY                   ADDRESS         REF BY
           =====                   =======         ======
           ?DivMod8u               E4CC            CTS_getReading (CTS_wolverine)
           ?DivMod16u              E4D0            ADC12_ISR (ULPMeter)
                                                   Dominant_Element (CTS_Layer)
                                                   LCD_drawBattery (UpdateDisplay)
                                                   LCD_updateClock (UpdateDisplay)
                                                   Segment part 0 (?DivMod816s)
                                                   TI_CAPT_Wheel (CTS_Layer)
                                                   UnsignedInt_To_ASCII (UpdateDisplay)

    -------------------------------------------------------------------------
  LIBRARY MODULE, NAME : ?DivMod816s

  SEGMENTS IN THE MODULE
  ======================
<CODE> 1 (was CODE)
  Relative segment, address: E0EA - E11D (0x34 bytes), align: 1
  Segment part 0.
           ENTRY                   ADDRESS         REF BY
           =====                   =======         ======
           ?DivMod8s               E0EA 
           ?DivMod16s              E0EE            CTS_getReading (CTS_wolverine)
                                                   LCD_drawSliderBall (UpdateDisplay)
                                                   TI_CAPT_Wheel (CTS_Layer)
                                                   collisionDetect (Game)

    -------------------------------------------------------------------------
  LIBRARY MODULE, NAME : ?DivMod32u

  SEGMENTS IN THE MODULE
  ======================
<CODE> 1 (was CODE)
  Relative segment, address: E010 - E047 (0x38 bytes), align: 1
  Segment part 0.
           ENTRY                   ADDRESS         REF BY
           =====                   =======         ======
           ?DivMod32u              E010            ?DivMod32s (?DivMod32s)
                                                   EUSCI_B_SPI_masterInit (eusci_b_spi)
                                                   UnsignedLong_To_ASCII (UpdateDisplay)

    -------------------------------------------------------------------------
  LIBRARY MODULE, NAME : ?DivMod32s

  SEGMENTS IN THE MODULE
  ======================
<CODE> 1 (was CODE)
  Relative segment, address: DEDC - DF1B (0x40 bytes), align: 1
  Segment part 0.
           ENTRY                   ADDRESS         REF BY
           =====                   =======         ======
           ?DivMod32s              DEDC            GrLineClip (line)
                                                   GrLineDraw (line)

    -------------------------------------------------------------------------
  LIBRARY MODULE, NAME : ?memcpy

  SEGMENTS IN THE MODULE
  ======================
<CODE> 1 (was CODE)
  Relative segment, address: E5B6 - E5C7 (0x12 bytes), align: 1
  Segment part 2.
           ENTRY                   ADDRESS         REF BY
           =====                   =======         ======
           memcpy                  E5B6            __data16_memcpy (?memzero)
               CSTACK = 00000000 ( 00000004 )

    -------------------------------------------------------------------------
  LIBRARY MODULE, NAME : ?CopyMemoryWords

  SEGMENTS IN THE MODULE
  ======================
<CODE> 1 (was CODE)
  Relative segment, address: E60C - E61B (0x10 bytes), align: 1
  Segment part 0.
           ENTRY                   ADDRESS         REF BY
           =====                   =======         ======
           ?CopyMemoryWords        E60C            GrStringDraw (string)

    -------------------------------------------------------------------------
  LIBRARY MODULE, NAME : ?ClearMemoryBytes

  SEGMENTS IN THE MODULE
  ======================
<CODE> 1 (was CODE)
  Relative segment, address: E66C - E67B (0x10 bytes), align: 1
  Segment part 0.
           ENTRY                   ADDRESS         REF BY
           =====                   =======         ======
           ?ClearMemoryBytes       E66C            LCD_displayGameOver (UpdateDisplay)
                                                   LCD_displayNewHighScore (UpdateDisplay)
                                                   LCD_displaySpeed (UpdateDisplay)
                                                   LCD_drawBattery (UpdateDisplay)
                                                   LCD_showDataSent (UpdateDisplay)
                                                   LCD_updateClock (UpdateDisplay)
                                                   LCD_updateLives (UpdateDisplay)
                                                   LCD_updateScore (UpdateDisplay)
                                                   UnsignedInt_To_ASCII (UpdateDisplay)
                                                   UnsignedLong_To_ASCII (UpdateDisplay)

    -------------------------------------------------------------------------
  LIBRARY MODULE, NAME : ?memzero

  SEGMENTS IN THE MODULE
  ======================
<CODE> 1 (was CODE)
  Relative segment, address: E5C8 - E5D9 (0x12 bytes), align: 1
  Segment part 4.
           ENTRY                   ADDRESS         REF BY
           =====                   =======         ======
           __data16_memzero        E5C8            ?cstart_init_zero (?cstart)
               CSTACK = 00000000 ( 00000004 )
    -------------------------------------------------------------------------
<CODE> 1 (was CODE)
  Relative segment, address: E7EE - E7F1 (0x4 bytes), align: 1
  Segment part 3.
           ENTRY                   ADDRESS         REF BY
           =====                   =======         ======
           __data16_memcpy         E7EE            ?cstart_init_copy (?cstart)
               calls direct
               CSTACK = 00000000 ( 00000004 )

    -------------------------------------------------------------------------
  LIBRARY MODULE, NAME : ?IndCallR7

  SEGMENTS IN THE MODULE
  ======================
<CODE> 1 (was CODE)
  Relative segment, address: E7D6 - E7D9 (0x4 bytes), align: 1
  Segment part 0.
           ENTRY                   ADDRESS         REF BY
           =====                   =======         ======
           ?IndCallR7              E7D6            LCD_drawBattery (UpdateDisplay)
                                                   LCD_updateClock (UpdateDisplay)

    -------------------------------------------------------------------------
  LIBRARY MODULE, NAME : ?IndCallR9

  SEGMENTS IN THE MODULE
  ======================
<CODE> 1 (was CODE)
  Relative segment, address: E7DA - E7DD (0x4 bytes), align: 1
  Segment part 0.
           ENTRY                   ADDRESS         REF BY
           =====                   =======         ======
           ?IndCallR9              E7DA            GrCircleDraw (circle)
                                                   GrLineDraw (line)
                                                   LCD_displayCacheRatioMenu (UpdateDisplay)
                                                   LCD_displayFrequencyMenu (UpdateDisplay)
                                                   LCD_displayMainMenu (UpdateDisplay)
                                                   LCD_displaySendingScreen (UpdateDisplay)
                                                   LCD_displayULPSubMenu (UpdateDisplay)
                                                   LCD_drawLowBattery (UpdateDisplay)
                                                   LCD_showDataSent (UpdateDisplay)
                                                   LCD_sliderBallMenu (UpdateDisplay)
                                                   LCD_updateClock (UpdateDisplay)
                                                   SystemInit (FR59xx_EXP)
                                                   SystemInitFromLPM35 (FR59xx_EXP)

    -------------------------------------------------------------------------
  LIBRARY MODULE, NAME : ?IndCallR11

  SEGMENTS IN THE MODULE
  ======================
<CODE> 1 (was CODE)
  Relative segment, address: E7DE - E7E1 (0x4 bytes), align: 1
  Segment part 0.
           ENTRY                   ADDRESS         REF BY
           =====                   =======         ======
           ?IndCallR11             E7DE            GrCircleDraw (circle)
                                                   GrLineDrawH (line)
                                                   GrLineDrawV (line)
                                                   GrStringDraw (string)

    -------------------------------------------------------------------------
  LIBRARY MODULE, NAME : ?IndCallR15

  SEGMENTS IN THE MODULE
  ======================
<CODE> 1 (was CODE)
  Relative segment, address: E7E2 - E7E5 (0x4 bytes), align: 1
  Segment part 0.
           ENTRY                   ADDRESS         REF BY
           =====                   =======         ======
           ?IndCallR15             E7E2            LCD_activePowerIntro (UpdateDisplay)
                                                   LCD_displayCacheRatioMenu (UpdateDisplay)
                                                   LCD_displayFrequencyMenu (UpdateDisplay)
                                                   LCD_displayGameOver (UpdateDisplay)
                                                   LCD_displayMainMenu (UpdateDisplay)
                                                   LCD_displayNewHighScore (UpdateDisplay)
                                                   LCD_displaySendingScreen (UpdateDisplay)
                                                   LCD_displaySpeed (UpdateDisplay)
                                                   LCD_displayULPSubMenu (UpdateDisplay)
                                                   LCD_drawBattery (UpdateDisplay)
                                                   LCD_drawLowBattery (UpdateDisplay)
                                                   LCD_drawSliderBall (UpdateDisplay)
                                                   LCD_introULP (UpdateDisplay)
                                                   LCD_introWrite (UpdateDisplay)
                                                   LCD_showDataSent (UpdateDisplay)
                                                   LCD_sliderBallMenu (UpdateDisplay)
                                                   LCD_updateClock (UpdateDisplay)
                                                   LCD_updateLives (UpdateDisplay)
                                                   LCD_updateScore (UpdateDisplay)
                                                   SliderBall_app (Game)

    -------------------------------------------------------------------------
  LIBRARY MODULE, NAME : ?strcat

  SEGMENTS IN THE MODULE
  ======================
<CODE> 1 (was CODE)
  Relative segment, address: E51A - E531 (0x18 bytes), align: 1
  Segment part 2.
           ENTRY                   ADDRESS         REF BY
           =====                   =======         ======
           strcat                  E51A            LCD_displaySpeed (UpdateDisplay)
                                                   LCD_drawBattery (UpdateDisplay)
                                                   LCD_updateClock (UpdateDisplay)
               CSTACK = 00000000 ( 00000004 )

    -------------------------------------------------------------------------
  LIBRARY MODULE, NAME : ?strcpy

  SEGMENTS IN THE MODULE
  ======================
<CODE> 1 (was CODE)
  Relative segment, address: E65C - E66B (0x10 bytes), align: 1
  Segment part 2.
           ENTRY                   ADDRESS         REF BY
           =====                   =======         ======
           strcpy                  E65C            LCD_displayCacheRatioMenu (UpdateDisplay)
                                                   LCD_displayFrequencyMenu (UpdateDisplay)
                                                   LCD_displayGameOver (UpdateDisplay)
                                                   LCD_displayMainMenu (UpdateDisplay)
                                                   LCD_displayNewHighScore (UpdateDisplay)
                                                   LCD_displaySpeed (UpdateDisplay)
                                                   LCD_displayULPSubMenu (UpdateDisplay)
                                                   LCD_drawBattery (UpdateDisplay)
                                                   LCD_sliderBallMenu (UpdateDisplay)
                                                   LCD_updateClock (UpdateDisplay)
                                                   LCD_updateLives (UpdateDisplay)
                                                   LCD_updateScore (UpdateDisplay)
               CSTACK = 00000000 ( 00000004 )

    -------------------------------------------------------------------------
  LIBRARY MODULE, NAME : ?strncat

  SEGMENTS IN THE MODULE
  ======================
<CODE> 1 (was CODE)
  Relative segment, address: E338 - E35D (0x26 bytes), align: 1
  Segment part 2.
           ENTRY                   ADDRESS         REF BY
           =====                   =======         ======
           strncat                 E338            LCD_displayGameOver (UpdateDisplay)
                                                   LCD_displayNewHighScore (UpdateDisplay)
                                                   LCD_drawBattery (UpdateDisplay)
                                                   LCD_updateClock (UpdateDisplay)
                                                   LCD_updateLives (UpdateDisplay)
                                                   LCD_updateScore (UpdateDisplay)
               CSTACK = 00000000 ( 00000004 )




                ****************************************
                *                                      *
                *      SEGMENTS IN ADDRESS ORDER       *
                *                                      *
                ****************************************


SEGMENT              SPACE    START ADDRESS   END ADDRESS     SIZE  TYPE  ALIGN
=======              =====    =============   ===========     ====  ====  =====
DATA16_AN                              0100 - 0101               2   rel    0
                                       015C - 015D               2 
                                       019C - 019F               4 
                                       020E - 020F               2 
                                       0222 - 0223               2 
                                       023E - 023F               2 
                                       0400 - 0403               4 
                                       0412 - 0413               2 
                                       043E - 043F               2 
                                       04AA - 04AB               2 
                                       04AE - 04B7               A 
                                       0510 - 0511               2 
                                       05CE - 05CF               2 
                                       05DC - 05DD               2 
                                       064E - 064F               2 
                                       066C - 066D               2 
                                       0860 - 0861               2 
DATA16_I                               1C00 - 1C0E               F   rel    1
DATA16_Z                               1C10 - 20FD             4EE   rel    1
CSTACK                                 2360 - 23FF              A0   rel    1
CSTART                                 4400 - 442F              30   rel    1
ISR_CODE                               4430 - 47A1             372   rel    1
DATA16_C                               47A2 - 697E            21DD   rel    1
DATA16_ID                              6980 - 698E               F   rel    1
<CODE> 1                               6990 - E7F3            7E64   rel    1
DATA16_AN                              F000 - F007               8   rel    0
INTVEC                                 FF90 - FFFD              6E   com    1
RESET                                  FFFE - FFFF               2   rel    1

                ****************************************
                *                                      *
                *        END OF CROSS REFERENCE        *
                *                                      *
                ****************************************

 33 398 bytes of CODE  memory
  1 437 bytes of DATA  memory (+ 54 absolute )
  8 684 bytes of CONST memory

Errors: none
Warnings: none

